ARM Linker, 4.1 [Build 894] [Standard]

==============================================================================

Section Cross References

    system_stm32f4xx.o(i.SystemCoreClockUpdate) refers to system_stm32f4xx.o(.data) for .data
    system_stm32f4xx.o(i.SystemInit) refers to system_stm32f4xx.o(i.SetSysClock) for SetSysClock
    startup_stm32f4xx.o(RESET) refers to startup_stm32f4xx.o(STACK) for __initial_sp
    startup_stm32f4xx.o(RESET) refers to startup_stm32f4xx.o(.text) for Reset_Handler
    startup_stm32f4xx.o(RESET) refers to stm32f4xx_it.o(i.NMI_Handler) for NMI_Handler
    startup_stm32f4xx.o(RESET) refers to stm32f4xx_it.o(i.HardFault_Handler) for HardFault_Handler
    startup_stm32f4xx.o(RESET) refers to stm32f4xx_it.o(i.MemManage_Handler) for MemManage_Handler
    startup_stm32f4xx.o(RESET) refers to stm32f4xx_it.o(i.BusFault_Handler) for BusFault_Handler
    startup_stm32f4xx.o(RESET) refers to stm32f4xx_it.o(i.UsageFault_Handler) for UsageFault_Handler
    startup_stm32f4xx.o(RESET) refers to port.o(.emb_text) for vPortSVCHandler
    startup_stm32f4xx.o(RESET) refers to stm32f4xx_it.o(i.DebugMon_Handler) for DebugMon_Handler
    startup_stm32f4xx.o(RESET) refers to stm32f4xx_it.o(i.SysTick_Handler) for SysTick_Handler
    startup_stm32f4xx.o(RESET) refers to stm32f4xx_it.o(i.EXTI15_10_IRQHandler) for EXTI15_10_IRQHandler
    startup_stm32f4xx.o(RESET) refers to stm32f4xx_it.o(i.ETH_IRQHandler) for ETH_IRQHandler
    startup_stm32f4xx.o(.text) refers to system_stm32f4xx.o(i.SystemInit) for SystemInit
    startup_stm32f4xx.o(.text) refers to entry.o(.ARM.Collect$$$$00000000) for __main
    main.o(i.LCD_LED_Init) refers to stm324xg_eval_lcd.o(i.STM324xG_LCD_Init) for STM324xG_LCD_Init
    main.o(i.LCD_LED_Init) refers to stm324xg_eval.o(i.STM_EVAL_LEDInit) for STM_EVAL_LEDInit
    main.o(i.LCD_LED_Init) refers to stm324xg_eval_lcd.o(i.LCD_Clear) for LCD_Clear
    main.o(i.LCD_LED_Init) refers to stm324xg_eval_lcd.o(i.LCD_SetBackColor) for LCD_SetBackColor
    main.o(i.LCD_LED_Init) refers to stm324xg_eval_lcd.o(i.LCD_SetTextColor) for LCD_SetTextColor
    main.o(i.LCD_LED_Init) refers to stm324xg_eval_lcd.o(i.LCD_GetFont) for LCD_GetFont
    main.o(i.LCD_LED_Init) refers to stm324xg_eval_lcd.o(i.LCD_DisplayStringLine) for LCD_DisplayStringLine
    main.o(i.ToggleLed4) refers to stm324xg_eval.o(i.STM_EVAL_LEDToggle) for STM_EVAL_LEDToggle
    main.o(i.ToggleLed4) refers to tasks.o(i.vTaskDelay) for vTaskDelay
    main.o(i.ToggleLed4) refers to netconf.o(.bss) for xnetif
    main.o(i.ToggleLed4) refers to main.o(.data) for .data
    main.o(i.main) refers to main.o(i.LCD_LED_Init) for LCD_LED_Init
    main.o(i.main) refers to stm32f4x7_eth_bsp.o(i.ETH_BSP_Config) for ETH_BSP_Config
    main.o(i.main) refers to netconf.o(i.LwIP_Init) for LwIP_Init
    main.o(i.main) refers to tcpecho.o(i.tcpecho_init) for tcpecho_init
    main.o(i.main) refers to udpecho.o(i.udpecho_init) for udpecho_init
    main.o(i.main) refers to tasks.o(i.xTaskGenericCreate) for xTaskGenericCreate
    main.o(i.main) refers to tasks.o(i.vTaskStartScheduler) for vTaskStartScheduler
    main.o(i.main) refers to main.o(i.ToggleLed4) for ToggleLed4
    netconf.o(i.LwIP_Init) refers to tcpip.o(i.tcpip_init) for tcpip_init
    netconf.o(i.LwIP_Init) refers to inet.o(i.htonl) for htonl
    netconf.o(i.LwIP_Init) refers to printf1.o(i.__0sprintf$1) for __2sprintf
    netconf.o(i.LwIP_Init) refers to stm324xg_eval_lcd.o(i.LCD_GetFont) for LCD_GetFont
    netconf.o(i.LwIP_Init) refers to stm324xg_eval_lcd.o(i.LCD_DisplayStringLine) for LCD_DisplayStringLine
    netconf.o(i.LwIP_Init) refers to netif.o(i.netif_add) for netif_add
    netconf.o(i.LwIP_Init) refers to netif.o(i.netif_set_default) for netif_set_default
    netconf.o(i.LwIP_Init) refers to netif.o(i.netif_set_up) for netif_set_up
    netconf.o(i.LwIP_Init) refers to tcpip.o(i.tcpip_input) for tcpip_input
    netconf.o(i.LwIP_Init) refers to ethernetif.o(i.ethernetif_init) for ethernetif_init
    netconf.o(i.LwIP_Init) refers to netconf.o(.bss) for .bss
    stm32f4x7_eth_bsp.o(i.ETH_BSP_Config) refers to stm32f4x7_eth_bsp.o(i.ETH_GPIO_Config) for ETH_GPIO_Config
    stm32f4x7_eth_bsp.o(i.ETH_BSP_Config) refers to misc.o(i.NVIC_PriorityGroupConfig) for NVIC_PriorityGroupConfig
    stm32f4x7_eth_bsp.o(i.ETH_BSP_Config) refers to misc.o(i.NVIC_Init) for NVIC_Init
    stm32f4x7_eth_bsp.o(i.ETH_BSP_Config) refers to stm32f4x7_eth_bsp.o(i.ETH_MACDMA_Config) for ETH_MACDMA_Config
    stm32f4x7_eth_bsp.o(i.ETH_BSP_Config) refers to stm32f4x7_eth_bsp.o(i.Eth_Link_PHYITConfig) for Eth_Link_PHYITConfig
    stm32f4x7_eth_bsp.o(i.ETH_BSP_Config) refers to stm32f4x7_eth_bsp.o(i.Eth_Link_EXTIConfig) for Eth_Link_EXTIConfig
    stm32f4x7_eth_bsp.o(i.ETH_BSP_Config) refers to stm324xg_eval_lcd.o(i.LCD_SetTextColor) for LCD_SetTextColor
    stm32f4x7_eth_bsp.o(i.ETH_BSP_Config) refers to stm324xg_eval_lcd.o(i.LCD_GetFont) for LCD_GetFont
    stm32f4x7_eth_bsp.o(i.ETH_BSP_Config) refers to stm324xg_eval_lcd.o(i.LCD_DisplayStringLine) for LCD_DisplayStringLine
    stm32f4x7_eth_bsp.o(i.ETH_BSP_Config) refers to stm32f4x7_eth_bsp.o(.data) for .data
    stm32f4x7_eth_bsp.o(i.ETH_GPIO_Config) refers to stm32f4xx_rcc.o(i.RCC_AHB1PeriphClockCmd) for RCC_AHB1PeriphClockCmd
    stm32f4x7_eth_bsp.o(i.ETH_GPIO_Config) refers to stm32f4xx_rcc.o(i.RCC_APB2PeriphClockCmd) for RCC_APB2PeriphClockCmd
    stm32f4x7_eth_bsp.o(i.ETH_GPIO_Config) refers to stm32f4xx_rcc.o(i.RCC_MCO1Config) for RCC_MCO1Config
    stm32f4x7_eth_bsp.o(i.ETH_GPIO_Config) refers to stm32f4xx_syscfg.o(i.SYSCFG_ETH_MediaInterfaceConfig) for SYSCFG_ETH_MediaInterfaceConfig
    stm32f4x7_eth_bsp.o(i.ETH_GPIO_Config) refers to stm32f4xx_gpio.o(i.GPIO_Init) for GPIO_Init
    stm32f4x7_eth_bsp.o(i.ETH_GPIO_Config) refers to stm32f4xx_gpio.o(i.GPIO_PinAFConfig) for GPIO_PinAFConfig
    stm32f4x7_eth_bsp.o(i.ETH_MACDMA_Config) refers to stm32f4xx_rcc.o(i.RCC_AHB1PeriphClockCmd) for RCC_AHB1PeriphClockCmd
    stm32f4x7_eth_bsp.o(i.ETH_MACDMA_Config) refers to stm32f4x7_eth.o(i.ETH_DeInit) for ETH_DeInit
    stm32f4x7_eth_bsp.o(i.ETH_MACDMA_Config) refers to stm32f4x7_eth.o(i.ETH_SoftwareReset) for ETH_SoftwareReset
    stm32f4x7_eth_bsp.o(i.ETH_MACDMA_Config) refers to stm32f4x7_eth.o(i.ETH_GetSoftwareResetStatus) for ETH_GetSoftwareResetStatus
    stm32f4x7_eth_bsp.o(i.ETH_MACDMA_Config) refers to stm32f4x7_eth.o(i.ETH_StructInit) for ETH_StructInit
    stm32f4x7_eth_bsp.o(i.ETH_MACDMA_Config) refers to stm32f4x7_eth.o(i.ETH_Init) for ETH_Init
    stm32f4x7_eth_bsp.o(i.ETH_MACDMA_Config) refers to stm32f4x7_eth.o(i.ETH_DMAITConfig) for ETH_DMAITConfig
    stm32f4x7_eth_bsp.o(i.ETH_MACDMA_Config) refers to stm32f4x7_eth_bsp.o(.data) for .data
    stm32f4x7_eth_bsp.o(i.Eth_Link_EXTIConfig) refers to stm32f4xx_rcc.o(i.RCC_AHB1PeriphClockCmd) for RCC_AHB1PeriphClockCmd
    stm32f4x7_eth_bsp.o(i.Eth_Link_EXTIConfig) refers to stm32f4xx_rcc.o(i.RCC_APB2PeriphClockCmd) for RCC_APB2PeriphClockCmd
    stm32f4x7_eth_bsp.o(i.Eth_Link_EXTIConfig) refers to stm32f4xx_gpio.o(i.GPIO_Init) for GPIO_Init
    stm32f4x7_eth_bsp.o(i.Eth_Link_EXTIConfig) refers to stm32f4xx_syscfg.o(i.SYSCFG_EXTILineConfig) for SYSCFG_EXTILineConfig
    stm32f4x7_eth_bsp.o(i.Eth_Link_EXTIConfig) refers to stm32f4xx_exti.o(i.EXTI_Init) for EXTI_Init
    stm32f4x7_eth_bsp.o(i.Eth_Link_EXTIConfig) refers to misc.o(i.NVIC_PriorityGroupConfig) for NVIC_PriorityGroupConfig
    stm32f4x7_eth_bsp.o(i.Eth_Link_EXTIConfig) refers to misc.o(i.NVIC_Init) for NVIC_Init
    stm32f4x7_eth_bsp.o(i.Eth_Link_ITHandler) refers to stm32f4x7_eth.o(i.ETH_ReadPHYRegister) for ETH_ReadPHYRegister
    stm32f4x7_eth_bsp.o(i.Eth_Link_ITHandler) refers to stm324xg_eval_lcd.o(i.LCD_SetTextColor) for LCD_SetTextColor
    stm32f4x7_eth_bsp.o(i.Eth_Link_ITHandler) refers to stm324xg_eval_lcd.o(i.LCD_GetFont) for LCD_GetFont
    stm32f4x7_eth_bsp.o(i.Eth_Link_ITHandler) refers to stm324xg_eval_lcd.o(i.LCD_DisplayStringLine) for LCD_DisplayStringLine
    stm32f4x7_eth_bsp.o(i.Eth_Link_ITHandler) refers to stm32f4x7_eth_bsp.o(.data) for .data
    stm32f4x7_eth_bsp.o(i.Eth_Link_PHYITConfig) refers to stm32f4x7_eth.o(i.ETH_ReadPHYRegister) for ETH_ReadPHYRegister
    stm32f4x7_eth_bsp.o(i.Eth_Link_PHYITConfig) refers to stm32f4x7_eth.o(i.ETH_WritePHYRegister) for ETH_WritePHYRegister
    stm32f4xx_it.o(i.ETH_IRQHandler) refers to stm32f4x7_eth.o(i.ETH_GetDMAFlagStatus) for ETH_GetDMAFlagStatus
    stm32f4xx_it.o(i.ETH_IRQHandler) refers to queue.o(i.xQueueGenericSendFromISR) for xQueueGenericSendFromISR
    stm32f4xx_it.o(i.ETH_IRQHandler) refers to stm32f4x7_eth.o(i.ETH_DMAClearITPendingBit) for ETH_DMAClearITPendingBit
    stm32f4xx_it.o(i.ETH_IRQHandler) refers to port.o(i.vPortYieldFromISR) for vPortYieldFromISR
    stm32f4xx_it.o(i.ETH_IRQHandler) refers to ethernetif.o(.data) for s_xSemaphore
    stm32f4xx_it.o(i.EXTI15_10_IRQHandler) refers to stm32f4xx_exti.o(i.EXTI_GetITStatus) for EXTI_GetITStatus
    stm32f4xx_it.o(i.EXTI15_10_IRQHandler) refers to stm32f4x7_eth_bsp.o(i.Eth_Link_ITHandler) for Eth_Link_ITHandler
    stm32f4xx_it.o(i.EXTI15_10_IRQHandler) refers to stm32f4xx_exti.o(i.EXTI_ClearITPendingBit) for EXTI_ClearITPendingBit
    stm32f4xx_it.o(i.SysTick_Handler) refers to port.o(i.xPortSysTickHandler) for xPortSysTickHandler
    udpecho.o(i.udpecho_init) refers to sys_arch.o(i.sys_thread_new) for sys_thread_new
    udpecho.o(i.udpecho_init) refers to udpecho.o(i.udpecho_thread) for udpecho_thread
    udpecho.o(i.udpecho_thread) refers to api_lib.o(i.netconn_new_with_proto_and_callback) for netconn_new_with_proto_and_callback
    udpecho.o(i.udpecho_thread) refers to api_lib.o(i.netconn_bind) for netconn_bind
    udpecho.o(i.udpecho_thread) refers to printf1.o(i.__0printf$1) for __2printf
    udpecho.o(i.udpecho_thread) refers to api_lib.o(i.netconn_recv) for netconn_recv
    udpecho.o(i.udpecho_thread) refers to api_lib.o(i.netconn_connect) for netconn_connect
    udpecho.o(i.udpecho_thread) refers to api_lib.o(i.netconn_send) for netconn_send
    udpecho.o(i.udpecho_thread) refers to netbuf.o(i.netbuf_delete) for netbuf_delete
    udpecho.o(i.udpecho_thread) refers to udpecho.o(.data) for .data
    udpecho.o(i.udpecho_thread) refers to ip_addr.o(.constdata) for ip_addr_any
    tcpecho.o(i.tcpecho_init) refers to sys_arch.o(i.sys_thread_new) for sys_thread_new
    tcpecho.o(i.tcpecho_init) refers to tcpecho.o(i.tcpecho_thread) for tcpecho_thread
    tcpecho.o(i.tcpecho_thread) refers to api_lib.o(i.netconn_new_with_proto_and_callback) for netconn_new_with_proto_and_callback
    tcpecho.o(i.tcpecho_thread) refers to api_lib.o(i.netconn_bind) for netconn_bind
    tcpecho.o(i.tcpecho_thread) refers to printf1.o(i.__0printf$1) for __2printf
    tcpecho.o(i.tcpecho_thread) refers to api_lib.o(i.netconn_listen_with_backlog) for netconn_listen_with_backlog
    tcpecho.o(i.tcpecho_thread) refers to api_lib.o(i.netconn_accept) for netconn_accept
    tcpecho.o(i.tcpecho_thread) refers to netbuf.o(i.netbuf_data) for netbuf_data
    tcpecho.o(i.tcpecho_thread) refers to api_lib.o(i.netconn_write) for netconn_write
    tcpecho.o(i.tcpecho_thread) refers to netbuf.o(i.netbuf_next) for netbuf_next
    tcpecho.o(i.tcpecho_thread) refers to netbuf.o(i.netbuf_delete) for netbuf_delete
    tcpecho.o(i.tcpecho_thread) refers to api_lib.o(i.netconn_recv) for netconn_recv
    tcpecho.o(i.tcpecho_thread) refers to api_lib.o(i.netconn_close) for netconn_close
    tcpecho.o(i.tcpecho_thread) refers to api_lib.o(i.netconn_delete) for netconn_delete
    api_lib.o(i.netconn_accept) refers to sys_arch.o(i.sys_arch_mbox_fetch) for sys_arch_mbox_fetch
    api_lib.o(i.netconn_bind) refers to tcpip.o(i.tcpip_apimsg) for tcpip_apimsg
    api_lib.o(i.netconn_bind) refers to api_msg.o(i.do_bind) for do_bind
    api_lib.o(i.netconn_close) refers to tcpip.o(i.tcpip_apimsg) for tcpip_apimsg
    api_lib.o(i.netconn_close) refers to api_msg.o(i.do_close) for do_close
    api_lib.o(i.netconn_connect) refers to tcpip.o(i.tcpip_apimsg) for tcpip_apimsg
    api_lib.o(i.netconn_connect) refers to api_msg.o(i.do_connect) for do_connect
    api_lib.o(i.netconn_delete) refers to tcpip.o(i.tcpip_apimsg) for tcpip_apimsg
    api_lib.o(i.netconn_delete) refers to api_msg.o(i.netconn_free) for netconn_free
    api_lib.o(i.netconn_delete) refers to api_msg.o(i.do_delconn) for do_delconn
    api_lib.o(i.netconn_disconnect) refers to tcpip.o(i.tcpip_apimsg) for tcpip_apimsg
    api_lib.o(i.netconn_disconnect) refers to api_msg.o(i.do_disconnect) for do_disconnect
    api_lib.o(i.netconn_getaddr) refers to tcpip.o(i.tcpip_apimsg) for tcpip_apimsg
    api_lib.o(i.netconn_getaddr) refers to api_msg.o(i.do_getaddr) for do_getaddr
    api_lib.o(i.netconn_listen_with_backlog) refers to tcpip.o(i.tcpip_apimsg) for tcpip_apimsg
    api_lib.o(i.netconn_listen_with_backlog) refers to api_msg.o(i.do_listen) for do_listen
    api_lib.o(i.netconn_new_with_proto_and_callback) refers to api_msg.o(i.netconn_alloc) for netconn_alloc
    api_lib.o(i.netconn_new_with_proto_and_callback) refers to tcpip.o(i.tcpip_apimsg) for tcpip_apimsg
    api_lib.o(i.netconn_new_with_proto_and_callback) refers to sys_arch.o(i.sys_sem_free) for sys_sem_free
    api_lib.o(i.netconn_new_with_proto_and_callback) refers to sys_arch.o(i.sys_mbox_free) for sys_mbox_free
    api_lib.o(i.netconn_new_with_proto_and_callback) refers to memp.o(i.memp_free) for memp_free
    api_lib.o(i.netconn_new_with_proto_and_callback) refers to api_msg.o(i.do_newconn) for do_newconn
    api_lib.o(i.netconn_recv) refers to sys_arch.o(i.sys_arch_mbox_fetch) for sys_arch_mbox_fetch
    api_lib.o(i.netconn_recv) refers to memp.o(i.memp_malloc) for memp_malloc
    api_lib.o(i.netconn_recv) refers to memp.o(i.memp_free) for memp_free
    api_lib.o(i.netconn_recv) refers to tcpip.o(i.tcpip_apimsg) for tcpip_apimsg
    api_lib.o(i.netconn_recv) refers to api_msg.o(i.do_recv) for do_recv
    api_lib.o(i.netconn_send) refers to tcpip.o(i.tcpip_apimsg) for tcpip_apimsg
    api_lib.o(i.netconn_send) refers to api_msg.o(i.do_send) for do_send
    api_lib.o(i.netconn_sendto) refers to api_lib.o(i.netconn_send) for netconn_send
    api_lib.o(i.netconn_write) refers to tcpip.o(i.tcpip_apimsg) for tcpip_apimsg
    api_lib.o(i.netconn_write) refers to api_msg.o(i.do_write) for do_write
    api_msg.o(i.accept_function) refers to api_msg.o(i.netconn_alloc) for netconn_alloc
    api_msg.o(i.accept_function) refers to api_msg.o(i.setup_tcp) for setup_tcp
    api_msg.o(i.accept_function) refers to sys_arch.o(i.sys_mbox_trypost) for sys_mbox_trypost
    api_msg.o(i.accept_function) refers to api_msg.o(i.netconn_free) for netconn_free
    api_msg.o(i.do_bind) refers to raw.o(i.raw_bind) for raw_bind
    api_msg.o(i.do_bind) refers to udp.o(i.udp_bind) for udp_bind
    api_msg.o(i.do_bind) refers to tcp.o(i.tcp_bind) for tcp_bind
    api_msg.o(i.do_bind) refers to sys_arch.o(i.sys_sem_signal) for sys_sem_signal
    api_msg.o(i.do_close) refers to sys_arch.o(i.sys_sem_signal) for sys_sem_signal
    api_msg.o(i.do_close) refers to api_msg.o(i.do_close_internal) for do_close_internal
    api_msg.o(i.do_close_internal) refers to tcp.o(i.tcp_arg) for tcp_arg
    api_msg.o(i.do_close_internal) refers to tcp.o(i.tcp_recv) for tcp_recv
    api_msg.o(i.do_close_internal) refers to tcp.o(i.tcp_accept) for tcp_accept
    api_msg.o(i.do_close_internal) refers to tcp.o(i.tcp_sent) for tcp_sent
    api_msg.o(i.do_close_internal) refers to tcp.o(i.tcp_poll) for tcp_poll
    api_msg.o(i.do_close_internal) refers to tcp.o(i.tcp_err) for tcp_err
    api_msg.o(i.do_close_internal) refers to tcp.o(i.tcp_close) for tcp_close
    api_msg.o(i.do_close_internal) refers to sys_arch.o(i.sys_sem_signal) for sys_sem_signal
    api_msg.o(i.do_close_internal) refers to api_msg.o(i.sent_tcp) for sent_tcp
    api_msg.o(i.do_close_internal) refers to api_msg.o(i.poll_tcp) for poll_tcp
    api_msg.o(i.do_close_internal) refers to api_msg.o(i.err_tcp) for err_tcp
    api_msg.o(i.do_connect) refers to sys_arch.o(i.sys_sem_signal) for sys_sem_signal
    api_msg.o(i.do_connect) refers to raw.o(i.raw_connect) for raw_connect
    api_msg.o(i.do_connect) refers to udp.o(i.udp_connect) for udp_connect
    api_msg.o(i.do_connect) refers to api_msg.o(i.setup_tcp) for setup_tcp
    api_msg.o(i.do_connect) refers to tcp.o(i.tcp_connect) for tcp_connect
    api_msg.o(i.do_connect) refers to api_msg.o(i.do_connected) for do_connected
    api_msg.o(i.do_connected) refers to api_msg.o(i.setup_tcp) for setup_tcp
    api_msg.o(i.do_connected) refers to sys_arch.o(i.sys_sem_signal) for sys_sem_signal
    api_msg.o(i.do_delconn) refers to raw.o(i.raw_remove) for raw_remove
    api_msg.o(i.do_delconn) refers to udp.o(i.udp_remove) for udp_remove
    api_msg.o(i.do_delconn) refers to sys_arch.o(i.sys_sem_signal) for sys_sem_signal
    api_msg.o(i.do_delconn) refers to api_msg.o(i.do_close_internal) for do_close_internal
    api_msg.o(i.do_disconnect) refers to udp.o(i.udp_disconnect) for udp_disconnect
    api_msg.o(i.do_disconnect) refers to sys_arch.o(i.sys_sem_signal) for sys_sem_signal
    api_msg.o(i.do_getaddr) refers to sys_arch.o(i.sys_sem_signal) for sys_sem_signal
    api_msg.o(i.do_listen) refers to sys_arch.o(i.sys_sem_signal) for sys_sem_signal
    api_msg.o(i.do_listen) refers to tcp.o(i.tcp_listen_with_backlog) for tcp_listen_with_backlog
    api_msg.o(i.do_listen) refers to sys_arch.o(i.sys_mbox_free) for sys_mbox_free
    api_msg.o(i.do_listen) refers to sys_arch.o(i.sys_mbox_new) for sys_mbox_new
    api_msg.o(i.do_listen) refers to tcp.o(i.tcp_arg) for tcp_arg
    api_msg.o(i.do_listen) refers to tcp.o(i.tcp_accept) for tcp_accept
    api_msg.o(i.do_listen) refers to api_msg.o(i.accept_function) for accept_function
    api_msg.o(i.do_newconn) refers to api_msg.o(i.pcb_new) for pcb_new
    api_msg.o(i.do_newconn) refers to sys_arch.o(i.sys_sem_signal) for sys_sem_signal
    api_msg.o(i.do_recv) refers to tcp.o(i.tcp_recved) for tcp_recved
    api_msg.o(i.do_recv) refers to sys_arch.o(i.sys_sem_signal) for sys_sem_signal
    api_msg.o(i.do_send) refers to raw.o(i.raw_sendto) for raw_sendto
    api_msg.o(i.do_send) refers to sys_arch.o(i.sys_sem_signal) for sys_sem_signal
    api_msg.o(i.do_send) refers to raw.o(i.raw_send) for raw_send
    api_msg.o(i.do_send) refers to udp.o(i.udp_sendto) for udp_sendto
    api_msg.o(i.do_send) refers to udp.o(i.udp_send) for udp_send
    api_msg.o(i.do_write) refers to sys_arch.o(i.sys_sem_signal) for sys_sem_signal
    api_msg.o(i.do_write) refers to api_msg.o(i.do_writemore) for do_writemore
    api_msg.o(i.do_writemore) refers to tcp_out.o(i.tcp_write) for tcp_write
    api_msg.o(i.do_writemore) refers to tcp_out.o(i.tcp_output) for tcp_output
    api_msg.o(i.do_writemore) refers to sys_arch.o(i.sys_sem_signal) for sys_sem_signal
    api_msg.o(i.err_tcp) refers to sys_arch.o(i.sys_mbox_post) for sys_mbox_post
    api_msg.o(i.err_tcp) refers to sys_arch.o(i.sys_sem_signal) for sys_sem_signal
    api_msg.o(i.netconn_alloc) refers to memp.o(i.memp_malloc) for memp_malloc
    api_msg.o(i.netconn_alloc) refers to sys_arch.o(i.sys_sem_new) for sys_sem_new
    api_msg.o(i.netconn_alloc) refers to sys_arch.o(i.sys_mbox_new) for sys_mbox_new
    api_msg.o(i.netconn_alloc) refers to memp.o(i.memp_free) for memp_free
    api_msg.o(i.netconn_alloc) refers to sys_arch.o(i.sys_sem_free) for sys_sem_free
    api_msg.o(i.netconn_free) refers to netbuf.o(i.netbuf_delete) for netbuf_delete
    api_msg.o(i.netconn_free) refers to sys_arch.o(i.sys_arch_mbox_tryfetch) for sys_arch_mbox_tryfetch
    api_msg.o(i.netconn_free) refers to sys_arch.o(i.sys_mbox_free) for sys_mbox_free
    api_msg.o(i.netconn_free) refers to pbuf.o(i.pbuf_free) for pbuf_free
    api_msg.o(i.netconn_free) refers to api_lib.o(i.netconn_delete) for netconn_delete
    api_msg.o(i.netconn_free) refers to sys_arch.o(i.sys_sem_free) for sys_sem_free
    api_msg.o(i.netconn_free) refers to memp.o(i.memp_free) for memp_free
    api_msg.o(i.pcb_new) refers to raw.o(i.raw_new) for raw_new
    api_msg.o(i.pcb_new) refers to raw.o(i.raw_recv) for raw_recv
    api_msg.o(i.pcb_new) refers to udp.o(i.udp_new) for udp_new
    api_msg.o(i.pcb_new) refers to udp.o(i.udp_recv) for udp_recv
    api_msg.o(i.pcb_new) refers to tcp.o(i.tcp_new) for tcp_new
    api_msg.o(i.pcb_new) refers to api_msg.o(i.setup_tcp) for setup_tcp
    api_msg.o(i.pcb_new) refers to api_msg.o(i.recv_raw) for recv_raw
    api_msg.o(i.pcb_new) refers to api_msg.o(i.recv_udp) for recv_udp
    api_msg.o(i.poll_tcp) refers to api_msg.o(i.do_writemore) for do_writemore
    api_msg.o(i.poll_tcp) refers to api_msg.o(i.do_close_internal) for do_close_internal
    api_msg.o(i.recv_raw) refers to pbuf.o(i.pbuf_alloc) for pbuf_alloc
    api_msg.o(i.recv_raw) refers to pbuf.o(i.pbuf_copy) for pbuf_copy
    api_msg.o(i.recv_raw) refers to memp.o(i.memp_malloc) for memp_malloc
    api_msg.o(i.recv_raw) refers to sys_arch.o(i.sys_mbox_trypost) for sys_mbox_trypost
    api_msg.o(i.recv_raw) refers to netbuf.o(i.netbuf_delete) for netbuf_delete
    api_msg.o(i.recv_raw) refers to pbuf.o(i.pbuf_free) for pbuf_free
    api_msg.o(i.recv_tcp) refers to sys_arch.o(i.sys_mbox_trypost) for sys_mbox_trypost
    api_msg.o(i.recv_udp) refers to memp.o(i.memp_malloc) for memp_malloc
    api_msg.o(i.recv_udp) refers to sys_arch.o(i.sys_mbox_trypost) for sys_mbox_trypost
    api_msg.o(i.recv_udp) refers to netbuf.o(i.netbuf_delete) for netbuf_delete
    api_msg.o(i.recv_udp) refers to pbuf.o(i.pbuf_free) for pbuf_free
    api_msg.o(i.sent_tcp) refers to api_msg.o(i.do_writemore) for do_writemore
    api_msg.o(i.sent_tcp) refers to api_msg.o(i.do_close_internal) for do_close_internal
    api_msg.o(i.setup_tcp) refers to tcp.o(i.tcp_arg) for tcp_arg
    api_msg.o(i.setup_tcp) refers to tcp.o(i.tcp_recv) for tcp_recv
    api_msg.o(i.setup_tcp) refers to tcp.o(i.tcp_sent) for tcp_sent
    api_msg.o(i.setup_tcp) refers to tcp.o(i.tcp_poll) for tcp_poll
    api_msg.o(i.setup_tcp) refers to tcp.o(i.tcp_err) for tcp_err
    api_msg.o(i.setup_tcp) refers to api_msg.o(i.recv_tcp) for recv_tcp
    api_msg.o(i.setup_tcp) refers to api_msg.o(i.sent_tcp) for sent_tcp
    api_msg.o(i.setup_tcp) refers to api_msg.o(i.poll_tcp) for poll_tcp
    api_msg.o(i.setup_tcp) refers to api_msg.o(i.err_tcp) for err_tcp
    err.o(i.lwip_strerr) refers to err.o(.data) for .data
    err.o(.data) refers to err.o(.conststring) for .conststring
    netbuf.o(i.netbuf_alloc) refers to pbuf.o(i.pbuf_free) for pbuf_free
    netbuf.o(i.netbuf_alloc) refers to pbuf.o(i.pbuf_alloc) for pbuf_alloc
    netbuf.o(i.netbuf_chain) refers to pbuf.o(i.pbuf_cat) for pbuf_cat
    netbuf.o(i.netbuf_chain) refers to memp.o(i.memp_free) for memp_free
    netbuf.o(i.netbuf_delete) refers to pbuf.o(i.pbuf_free) for pbuf_free
    netbuf.o(i.netbuf_delete) refers to memp.o(i.memp_free) for memp_free
    netbuf.o(i.netbuf_free) refers to pbuf.o(i.pbuf_free) for pbuf_free
    netbuf.o(i.netbuf_new) refers to memp.o(i.memp_malloc) for memp_malloc
    netbuf.o(i.netbuf_ref) refers to pbuf.o(i.pbuf_free) for pbuf_free
    netbuf.o(i.netbuf_ref) refers to pbuf.o(i.pbuf_alloc) for pbuf_alloc
    tcpip.o(i.arp_timer) refers to etharp.o(i.etharp_tmr) for etharp_tmr
    tcpip.o(i.arp_timer) refers to sys.o(i.sys_timeout) for sys_timeout
    tcpip.o(i.autoip_timer) refers to autoip.o(i.autoip_tmr) for autoip_tmr
    tcpip.o(i.autoip_timer) refers to sys.o(i.sys_timeout) for sys_timeout
    tcpip.o(i.dhcp_timer_coarse) refers to dhcp.o(i.dhcp_coarse_tmr) for dhcp_coarse_tmr
    tcpip.o(i.dhcp_timer_coarse) refers to sys.o(i.sys_timeout) for sys_timeout
    tcpip.o(i.dhcp_timer_fine) refers to dhcp.o(i.dhcp_fine_tmr) for dhcp_fine_tmr
    tcpip.o(i.dhcp_timer_fine) refers to sys.o(i.sys_timeout) for sys_timeout
    tcpip.o(i.mem_free_callback) refers to tcpip.o(i.tcpip_callback_with_block) for tcpip_callback_with_block
    tcpip.o(i.mem_free_callback) refers to mem.o(i.mem_free) for mem_free
    tcpip.o(i.pbuf_free_callback) refers to tcpip.o(i.tcpip_callback_with_block) for tcpip_callback_with_block
    tcpip.o(i.pbuf_free_callback) refers to tcpip.o(i.pbuf_free_int) for pbuf_free_int
    tcpip.o(i.pbuf_free_int) refers to pbuf.o(i.pbuf_free) for pbuf_free
    tcpip.o(i.tcp_timer_needed) refers to sys.o(i.sys_timeout) for sys_timeout
    tcpip.o(i.tcp_timer_needed) refers to tcpip.o(.data) for .data
    tcpip.o(i.tcp_timer_needed) refers to tcp.o(.data) for tcp_active_pcbs
    tcpip.o(i.tcp_timer_needed) refers to tcpip.o(i.tcpip_tcp_timer) for tcpip_tcp_timer
    tcpip.o(i.tcpip_apimsg) refers to sys_arch.o(i.sys_mbox_post) for sys_mbox_post
    tcpip.o(i.tcpip_apimsg) refers to sys_arch.o(i.sys_arch_sem_wait) for sys_arch_sem_wait
    tcpip.o(i.tcpip_apimsg) refers to tcpip.o(.data) for .data
    tcpip.o(i.tcpip_callback_with_block) refers to memp.o(i.memp_malloc) for memp_malloc
    tcpip.o(i.tcpip_callback_with_block) refers to sys_arch.o(i.sys_mbox_post) for sys_mbox_post
    tcpip.o(i.tcpip_callback_with_block) refers to sys_arch.o(i.sys_mbox_trypost) for sys_mbox_trypost
    tcpip.o(i.tcpip_callback_with_block) refers to memp.o(i.memp_free) for memp_free
    tcpip.o(i.tcpip_callback_with_block) refers to tcpip.o(.data) for .data
    tcpip.o(i.tcpip_init) refers to init.o(i.lwip_init) for lwip_init
    tcpip.o(i.tcpip_init) refers to sys_arch.o(i.sys_mbox_new) for sys_mbox_new
    tcpip.o(i.tcpip_init) refers to sys_arch.o(i.sys_thread_new) for sys_thread_new
    tcpip.o(i.tcpip_init) refers to tcpip.o(.data) for .data
    tcpip.o(i.tcpip_init) refers to tcpip.o(i.tcpip_thread) for tcpip_thread
    tcpip.o(i.tcpip_input) refers to memp.o(i.memp_malloc) for memp_malloc
    tcpip.o(i.tcpip_input) refers to sys_arch.o(i.sys_mbox_trypost) for sys_mbox_trypost
    tcpip.o(i.tcpip_input) refers to memp.o(i.memp_free) for memp_free
    tcpip.o(i.tcpip_input) refers to tcpip.o(.data) for .data
    tcpip.o(i.tcpip_tcp_timer) refers to tcp.o(i.tcp_tmr) for tcp_tmr
    tcpip.o(i.tcpip_tcp_timer) refers to sys.o(i.sys_timeout) for sys_timeout
    tcpip.o(i.tcpip_tcp_timer) refers to tcp.o(.data) for tcp_active_pcbs
    tcpip.o(i.tcpip_tcp_timer) refers to tcpip.o(.data) for .data
    tcpip.o(i.tcpip_thread) refers to sys.o(i.sys_timeout) for sys_timeout
    tcpip.o(i.tcpip_thread) refers to sys.o(i.sys_mbox_fetch) for sys_mbox_fetch
    tcpip.o(i.tcpip_thread) refers to etharp.o(i.ethernet_input) for ethernet_input
    tcpip.o(i.tcpip_thread) refers to ip.o(i.ip_input) for ip_input
    tcpip.o(i.tcpip_thread) refers to sys.o(i.sys_untimeout) for sys_untimeout
    tcpip.o(i.tcpip_thread) refers to memp.o(i.memp_free) for memp_free
    tcpip.o(i.tcpip_thread) refers to tcpip.o(i.arp_timer) for arp_timer
    tcpip.o(i.tcpip_thread) refers to tcpip.o(i.dhcp_timer_coarse) for dhcp_timer_coarse
    tcpip.o(i.tcpip_thread) refers to tcpip.o(i.dhcp_timer_fine) for dhcp_timer_fine
    tcpip.o(i.tcpip_thread) refers to tcpip.o(i.autoip_timer) for autoip_timer
    tcpip.o(i.tcpip_thread) refers to tcpip.o(.data) for .data
    tcpip.o(i.tcpip_timeout) refers to memp.o(i.memp_malloc) for memp_malloc
    tcpip.o(i.tcpip_timeout) refers to sys_arch.o(i.sys_mbox_post) for sys_mbox_post
    tcpip.o(i.tcpip_timeout) refers to tcpip.o(.data) for .data
    tcpip.o(i.tcpip_untimeout) refers to memp.o(i.memp_malloc) for memp_malloc
    tcpip.o(i.tcpip_untimeout) refers to sys_arch.o(i.sys_mbox_post) for sys_mbox_post
    tcpip.o(i.tcpip_untimeout) refers to tcpip.o(.data) for .data
    dhcp.o(i.dhcp_arp_reply) refers to dhcp.o(i.dhcp_decline) for dhcp_decline
    dhcp.o(i.dhcp_bind) refers to inet.o(i.ntohl) for ntohl
    dhcp.o(i.dhcp_bind) refers to inet.o(i.htonl) for htonl
    dhcp.o(i.dhcp_bind) refers to netif.o(i.netif_set_ipaddr) for netif_set_ipaddr
    dhcp.o(i.dhcp_bind) refers to netif.o(i.netif_set_netmask) for netif_set_netmask
    dhcp.o(i.dhcp_bind) refers to netif.o(i.netif_set_gw) for netif_set_gw
    dhcp.o(i.dhcp_bind) refers to netif.o(i.netif_set_up) for netif_set_up
    dhcp.o(i.dhcp_bind) refers to dhcp.o(i.dhcp_set_state) for dhcp_set_state
    dhcp.o(i.dhcp_check) refers to dhcp.o(i.dhcp_set_state) for dhcp_set_state
    dhcp.o(i.dhcp_check) refers to etharp.o(i.etharp_query) for etharp_query
    dhcp.o(i.dhcp_coarse_tmr) refers to dhcp.o(i.dhcp_rebind) for dhcp_rebind
    dhcp.o(i.dhcp_coarse_tmr) refers to dhcp.o(i.dhcp_renew) for dhcp_renew
    dhcp.o(i.dhcp_coarse_tmr) refers to netif.o(.data) for netif_list
    dhcp.o(i.dhcp_create_request) refers to pbuf.o(i.pbuf_alloc) for pbuf_alloc
    dhcp.o(i.dhcp_create_request) refers to inet.o(i.htonl) for htonl
    dhcp.o(i.dhcp_create_request) refers to dhcp.o(.data) for .data
    dhcp.o(i.dhcp_decline) refers to dhcp.o(i.dhcp_set_state) for dhcp_set_state
    dhcp.o(i.dhcp_decline) refers to dhcp.o(i.dhcp_create_request) for dhcp_create_request
    dhcp.o(i.dhcp_decline) refers to dhcp.o(i.dhcp_option) for dhcp_option
    dhcp.o(i.dhcp_decline) refers to dhcp.o(i.dhcp_option_byte) for dhcp_option_byte
    dhcp.o(i.dhcp_decline) refers to inet.o(i.ntohl) for ntohl
    dhcp.o(i.dhcp_decline) refers to dhcp.o(i.dhcp_option_long) for dhcp_option_long
    dhcp.o(i.dhcp_decline) refers to dhcp.o(i.dhcp_option_trailer) for dhcp_option_trailer
    dhcp.o(i.dhcp_decline) refers to pbuf.o(i.pbuf_realloc) for pbuf_realloc
    dhcp.o(i.dhcp_decline) refers to udp.o(i.udp_sendto_if) for udp_sendto_if
    dhcp.o(i.dhcp_decline) refers to dhcp.o(i.dhcp_delete_request) for dhcp_delete_request
    dhcp.o(i.dhcp_decline) refers to ip_addr.o(.constdata) for ip_addr_broadcast
    dhcp.o(i.dhcp_delete_request) refers to pbuf.o(i.pbuf_free) for pbuf_free
    dhcp.o(i.dhcp_discover) refers to dhcp.o(i.dhcp_set_state) for dhcp_set_state
    dhcp.o(i.dhcp_discover) refers to dhcp.o(i.dhcp_create_request) for dhcp_create_request
    dhcp.o(i.dhcp_discover) refers to dhcp.o(i.dhcp_option) for dhcp_option
    dhcp.o(i.dhcp_discover) refers to dhcp.o(i.dhcp_option_byte) for dhcp_option_byte
    dhcp.o(i.dhcp_discover) refers to dhcp.o(i.dhcp_option_short) for dhcp_option_short
    dhcp.o(i.dhcp_discover) refers to dhcp.o(i.dhcp_option_trailer) for dhcp_option_trailer
    dhcp.o(i.dhcp_discover) refers to pbuf.o(i.pbuf_realloc) for pbuf_realloc
    dhcp.o(i.dhcp_discover) refers to udp.o(i.udp_sendto_if) for udp_sendto_if
    dhcp.o(i.dhcp_discover) refers to dhcp.o(i.dhcp_delete_request) for dhcp_delete_request
    dhcp.o(i.dhcp_discover) refers to ip_addr.o(.constdata) for ip_addr_any
    dhcp.o(i.dhcp_discover) refers to ip_addr.o(.constdata) for ip_addr_broadcast
    dhcp.o(i.dhcp_fine_tmr) refers to dhcp.o(i.dhcp_timeout) for dhcp_timeout
    dhcp.o(i.dhcp_fine_tmr) refers to netif.o(.data) for netif_list
    dhcp.o(i.dhcp_free_reply) refers to mem.o(i.mem_free) for mem_free
    dhcp.o(i.dhcp_handle_ack) refers to dhcp.o(i.dhcp_get_option_ptr) for dhcp_get_option_ptr
    dhcp.o(i.dhcp_handle_ack) refers to dhcp.o(i.dhcp_get_option_long) for dhcp_get_option_long
    dhcp.o(i.dhcp_handle_ack) refers to inet.o(i.htonl) for htonl
    dhcp.o(i.dhcp_inform) refers to mem.o(i.mem_malloc) for mem_malloc
    dhcp.o(i.dhcp_inform) refers to memseta.o(.text) for __aeabi_memclr4
    dhcp.o(i.dhcp_inform) refers to udp.o(i.udp_new) for udp_new
    dhcp.o(i.dhcp_inform) refers to dhcp.o(i.dhcp_create_request) for dhcp_create_request
    dhcp.o(i.dhcp_inform) refers to dhcp.o(i.dhcp_option) for dhcp_option
    dhcp.o(i.dhcp_inform) refers to dhcp.o(i.dhcp_option_byte) for dhcp_option_byte
    dhcp.o(i.dhcp_inform) refers to dhcp.o(i.dhcp_option_short) for dhcp_option_short
    dhcp.o(i.dhcp_inform) refers to dhcp.o(i.dhcp_option_trailer) for dhcp_option_trailer
    dhcp.o(i.dhcp_inform) refers to pbuf.o(i.pbuf_realloc) for pbuf_realloc
    dhcp.o(i.dhcp_inform) refers to udp.o(i.udp_bind) for udp_bind
    dhcp.o(i.dhcp_inform) refers to udp.o(i.udp_sendto_if) for udp_sendto_if
    dhcp.o(i.dhcp_inform) refers to dhcp.o(i.dhcp_delete_request) for dhcp_delete_request
    dhcp.o(i.dhcp_inform) refers to udp.o(i.udp_remove) for udp_remove
    dhcp.o(i.dhcp_inform) refers to mem.o(i.mem_free) for mem_free
    dhcp.o(i.dhcp_inform) refers to ip_addr.o(.constdata) for ip_addr_any
    dhcp.o(i.dhcp_inform) refers to ip_addr.o(.constdata) for ip_addr_broadcast
    dhcp.o(i.dhcp_network_changed) refers to dhcp.o(i.dhcp_discover) for dhcp_discover
    dhcp.o(i.dhcp_network_changed) refers to netif.o(i.netif_set_down) for netif_set_down
    dhcp.o(i.dhcp_network_changed) refers to dhcp.o(i.dhcp_reboot) for dhcp_reboot
    dhcp.o(i.dhcp_rebind) refers to dhcp.o(i.dhcp_set_state) for dhcp_set_state
    dhcp.o(i.dhcp_rebind) refers to dhcp.o(i.dhcp_create_request) for dhcp_create_request
    dhcp.o(i.dhcp_rebind) refers to dhcp.o(i.dhcp_option) for dhcp_option
    dhcp.o(i.dhcp_rebind) refers to dhcp.o(i.dhcp_option_byte) for dhcp_option_byte
    dhcp.o(i.dhcp_rebind) refers to dhcp.o(i.dhcp_option_short) for dhcp_option_short
    dhcp.o(i.dhcp_rebind) refers to dhcp.o(i.dhcp_option_trailer) for dhcp_option_trailer
    dhcp.o(i.dhcp_rebind) refers to pbuf.o(i.pbuf_realloc) for pbuf_realloc
    dhcp.o(i.dhcp_rebind) refers to udp.o(i.udp_sendto_if) for udp_sendto_if
    dhcp.o(i.dhcp_rebind) refers to dhcp.o(i.dhcp_delete_request) for dhcp_delete_request
    dhcp.o(i.dhcp_rebind) refers to ip_addr.o(.constdata) for ip_addr_broadcast
    dhcp.o(i.dhcp_reboot) refers to dhcp.o(i.dhcp_set_state) for dhcp_set_state
    dhcp.o(i.dhcp_reboot) refers to dhcp.o(i.dhcp_create_request) for dhcp_create_request
    dhcp.o(i.dhcp_reboot) refers to dhcp.o(i.dhcp_option) for dhcp_option
    dhcp.o(i.dhcp_reboot) refers to dhcp.o(i.dhcp_option_byte) for dhcp_option_byte
    dhcp.o(i.dhcp_reboot) refers to dhcp.o(i.dhcp_option_short) for dhcp_option_short
    dhcp.o(i.dhcp_reboot) refers to inet.o(i.ntohl) for ntohl
    dhcp.o(i.dhcp_reboot) refers to dhcp.o(i.dhcp_option_long) for dhcp_option_long
    dhcp.o(i.dhcp_reboot) refers to dhcp.o(i.dhcp_option_trailer) for dhcp_option_trailer
    dhcp.o(i.dhcp_reboot) refers to pbuf.o(i.pbuf_realloc) for pbuf_realloc
    dhcp.o(i.dhcp_reboot) refers to udp.o(i.udp_sendto_if) for udp_sendto_if
    dhcp.o(i.dhcp_reboot) refers to dhcp.o(i.dhcp_delete_request) for dhcp_delete_request
    dhcp.o(i.dhcp_reboot) refers to ip_addr.o(.constdata) for ip_addr_broadcast
    dhcp.o(i.dhcp_recv) refers to inet.o(i.ntohl) for ntohl
    dhcp.o(i.dhcp_recv) refers to dhcp.o(i.dhcp_unfold_reply) for dhcp_unfold_reply
    dhcp.o(i.dhcp_recv) refers to dhcp.o(i.dhcp_get_option_ptr) for dhcp_get_option_ptr
    dhcp.o(i.dhcp_recv) refers to dhcp.o(i.dhcp_handle_ack) for dhcp_handle_ack
    dhcp.o(i.dhcp_recv) refers to dhcp.o(i.dhcp_check) for dhcp_check
    dhcp.o(i.dhcp_recv) refers to dhcp.o(i.dhcp_bind) for dhcp_bind
    dhcp.o(i.dhcp_recv) refers to netif.o(i.netif_set_down) for netif_set_down
    dhcp.o(i.dhcp_recv) refers to netif.o(i.netif_set_ipaddr) for netif_set_ipaddr
    dhcp.o(i.dhcp_recv) refers to netif.o(i.netif_set_gw) for netif_set_gw
    dhcp.o(i.dhcp_recv) refers to netif.o(i.netif_set_netmask) for netif_set_netmask
    dhcp.o(i.dhcp_recv) refers to dhcp.o(i.dhcp_set_state) for dhcp_set_state
    dhcp.o(i.dhcp_recv) refers to dhcp.o(i.dhcp_discover) for dhcp_discover
    dhcp.o(i.dhcp_recv) refers to dhcp.o(i.dhcp_get_option_long) for dhcp_get_option_long
    dhcp.o(i.dhcp_recv) refers to inet.o(i.htonl) for htonl
    dhcp.o(i.dhcp_recv) refers to dhcp.o(i.dhcp_select) for dhcp_select
    dhcp.o(i.dhcp_recv) refers to dhcp.o(i.dhcp_free_reply) for dhcp_free_reply
    dhcp.o(i.dhcp_recv) refers to pbuf.o(i.pbuf_free) for pbuf_free
    dhcp.o(i.dhcp_recv) refers to ip_addr.o(.constdata) for ip_addr_any
    dhcp.o(i.dhcp_release) refers to dhcp.o(i.dhcp_set_state) for dhcp_set_state
    dhcp.o(i.dhcp_release) refers to dhcp.o(i.dhcp_create_request) for dhcp_create_request
    dhcp.o(i.dhcp_release) refers to dhcp.o(i.dhcp_option) for dhcp_option
    dhcp.o(i.dhcp_release) refers to dhcp.o(i.dhcp_option_byte) for dhcp_option_byte
    dhcp.o(i.dhcp_release) refers to dhcp.o(i.dhcp_option_trailer) for dhcp_option_trailer
    dhcp.o(i.dhcp_release) refers to pbuf.o(i.pbuf_realloc) for pbuf_realloc
    dhcp.o(i.dhcp_release) refers to udp.o(i.udp_sendto_if) for udp_sendto_if
    dhcp.o(i.dhcp_release) refers to dhcp.o(i.dhcp_delete_request) for dhcp_delete_request
    dhcp.o(i.dhcp_release) refers to netif.o(i.netif_set_down) for netif_set_down
    dhcp.o(i.dhcp_release) refers to netif.o(i.netif_set_ipaddr) for netif_set_ipaddr
    dhcp.o(i.dhcp_release) refers to netif.o(i.netif_set_gw) for netif_set_gw
    dhcp.o(i.dhcp_release) refers to netif.o(i.netif_set_netmask) for netif_set_netmask
    dhcp.o(i.dhcp_release) refers to ip_addr.o(.constdata) for ip_addr_any
    dhcp.o(i.dhcp_renew) refers to dhcp.o(i.dhcp_set_state) for dhcp_set_state
    dhcp.o(i.dhcp_renew) refers to dhcp.o(i.dhcp_create_request) for dhcp_create_request
    dhcp.o(i.dhcp_renew) refers to dhcp.o(i.dhcp_option) for dhcp_option
    dhcp.o(i.dhcp_renew) refers to dhcp.o(i.dhcp_option_byte) for dhcp_option_byte
    dhcp.o(i.dhcp_renew) refers to dhcp.o(i.dhcp_option_short) for dhcp_option_short
    dhcp.o(i.dhcp_renew) refers to dhcp.o(i.dhcp_option_trailer) for dhcp_option_trailer
    dhcp.o(i.dhcp_renew) refers to pbuf.o(i.pbuf_realloc) for pbuf_realloc
    dhcp.o(i.dhcp_renew) refers to udp.o(i.udp_sendto_if) for udp_sendto_if
    dhcp.o(i.dhcp_renew) refers to dhcp.o(i.dhcp_delete_request) for dhcp_delete_request
    dhcp.o(i.dhcp_select) refers to dhcp.o(i.dhcp_set_state) for dhcp_set_state
    dhcp.o(i.dhcp_select) refers to dhcp.o(i.dhcp_create_request) for dhcp_create_request
    dhcp.o(i.dhcp_select) refers to dhcp.o(i.dhcp_option) for dhcp_option
    dhcp.o(i.dhcp_select) refers to dhcp.o(i.dhcp_option_byte) for dhcp_option_byte
    dhcp.o(i.dhcp_select) refers to dhcp.o(i.dhcp_option_short) for dhcp_option_short
    dhcp.o(i.dhcp_select) refers to inet.o(i.ntohl) for ntohl
    dhcp.o(i.dhcp_select) refers to dhcp.o(i.dhcp_option_long) for dhcp_option_long
    dhcp.o(i.dhcp_select) refers to dhcp.o(i.dhcp_option_trailer) for dhcp_option_trailer
    dhcp.o(i.dhcp_select) refers to pbuf.o(i.pbuf_realloc) for pbuf_realloc
    dhcp.o(i.dhcp_select) refers to udp.o(i.udp_sendto_if) for udp_sendto_if
    dhcp.o(i.dhcp_select) refers to dhcp.o(i.dhcp_delete_request) for dhcp_delete_request
    dhcp.o(i.dhcp_select) refers to ip_addr.o(.constdata) for ip_addr_broadcast
    dhcp.o(i.dhcp_start) refers to udp.o(i.udp_remove) for udp_remove
    dhcp.o(i.dhcp_start) refers to memseta.o(.text) for __aeabi_memclr4
    dhcp.o(i.dhcp_start) refers to udp.o(i.udp_new) for udp_new
    dhcp.o(i.dhcp_start) refers to udp.o(i.udp_bind) for udp_bind
    dhcp.o(i.dhcp_start) refers to udp.o(i.udp_connect) for udp_connect
    dhcp.o(i.dhcp_start) refers to udp.o(i.udp_recv) for udp_recv
    dhcp.o(i.dhcp_start) refers to dhcp.o(i.dhcp_discover) for dhcp_discover
    dhcp.o(i.dhcp_start) refers to dhcp.o(i.dhcp_stop) for dhcp_stop
    dhcp.o(i.dhcp_start) refers to mem.o(i.mem_malloc) for mem_malloc
    dhcp.o(i.dhcp_start) refers to mem.o(i.mem_free) for mem_free
    dhcp.o(i.dhcp_start) refers to ip_addr.o(.constdata) for ip_addr_any
    dhcp.o(i.dhcp_start) refers to dhcp.o(i.dhcp_recv) for dhcp_recv
    dhcp.o(i.dhcp_stop) refers to udp.o(i.udp_remove) for udp_remove
    dhcp.o(i.dhcp_stop) refers to mem.o(i.mem_free) for mem_free
    dhcp.o(i.dhcp_timeout) refers to dhcp.o(i.dhcp_reboot) for dhcp_reboot
    dhcp.o(i.dhcp_timeout) refers to dhcp.o(i.dhcp_discover) for dhcp_discover
    dhcp.o(i.dhcp_timeout) refers to dhcp.o(i.dhcp_select) for dhcp_select
    dhcp.o(i.dhcp_timeout) refers to dhcp.o(i.dhcp_release) for dhcp_release
    dhcp.o(i.dhcp_timeout) refers to dhcp.o(i.dhcp_check) for dhcp_check
    dhcp.o(i.dhcp_timeout) refers to dhcp.o(i.dhcp_bind) for dhcp_bind
    dhcp.o(i.dhcp_timeout) refers to dhcp.o(i.dhcp_renew) for dhcp_renew
    dhcp.o(i.dhcp_timeout) refers to dhcp.o(i.dhcp_rebind) for dhcp_rebind
    dhcp.o(i.dhcp_unfold_reply) refers to dhcp.o(i.dhcp_free_reply) for dhcp_free_reply
    dhcp.o(i.dhcp_unfold_reply) refers to mem.o(i.mem_malloc) for mem_malloc
    dhcp.o(i.dhcp_unfold_reply) refers to pbuf.o(i.pbuf_copy_partial) for pbuf_copy_partial
    dhcp.o(i.dhcp_unfold_reply) refers to mem.o(i.mem_free) for mem_free
    init.o(i.lwip_init) refers to sys_arch.o(i.sys_init) for sys_init
    init.o(i.lwip_init) refers to mem.o(i.mem_init) for mem_init
    init.o(i.lwip_init) refers to memp.o(i.memp_init) for memp_init
    init.o(i.lwip_init) refers to autoip.o(i.autoip_init) for autoip_init
    mem.o(i.mem_calloc) refers to mem.o(i.mem_malloc) for mem_malloc
    mem.o(i.mem_calloc) refers to memseta.o(.text) for __aeabi_memclr
    mem.o(i.mem_free) refers to sys_arch.o(i.sys_arch_sem_wait) for sys_arch_sem_wait
    mem.o(i.mem_free) refers to mem.o(i.plug_holes) for plug_holes
    mem.o(i.mem_free) refers to sys_arch.o(i.sys_sem_signal) for sys_sem_signal
    mem.o(i.mem_free) refers to mem.o(.data) for .data
    mem.o(i.mem_init) refers to sys_arch.o(i.sys_sem_new) for sys_sem_new
    mem.o(i.mem_init) refers to mem.o(.bss) for .bss
    mem.o(i.mem_init) refers to mem.o(.data) for .data
    mem.o(i.mem_malloc) refers to sys_arch.o(i.sys_arch_sem_wait) for sys_arch_sem_wait
    mem.o(i.mem_malloc) refers to sys_arch.o(i.sys_sem_signal) for sys_sem_signal
    mem.o(i.mem_malloc) refers to mem.o(.data) for .data
    mem.o(i.mem_realloc) refers to sys_arch.o(i.sys_arch_sem_wait) for sys_arch_sem_wait
    mem.o(i.mem_realloc) refers to sys_arch.o(i.sys_sem_signal) for sys_sem_signal
    mem.o(i.mem_realloc) refers to mem.o(.data) for .data
    mem.o(i.plug_holes) refers to mem.o(.data) for .data
    memp.o(i.memp_free) refers to memp.o(.bss) for .bss
    memp.o(i.memp_init) refers to memp.o(.bss) for .bss
    memp.o(i.memp_init) refers to memp.o(.constdata) for .constdata
    memp.o(i.memp_malloc) refers to memp.o(.bss) for .bss
    memp.o(.data) refers to memp.o(.conststring) for .conststring
    netif.o(i.netif_add) refers to netif.o(i.netif_set_addr) for netif_set_addr
    netif.o(i.netif_add) refers to netif.o(.data) for .data
    netif.o(i.netif_find) refers to netif.o(.data) for .data
    netif.o(i.netif_remove) refers to netif.o(.data) for .data
    netif.o(i.netif_set_addr) refers to netif.o(i.netif_set_ipaddr) for netif_set_ipaddr
    netif.o(i.netif_set_addr) refers to netif.o(i.netif_set_netmask) for netif_set_netmask
    netif.o(i.netif_set_addr) refers to netif.o(i.netif_set_gw) for netif_set_gw
    netif.o(i.netif_set_default) refers to netif.o(.data) for .data
    netif.o(i.netif_set_ipaddr) refers to tcp.o(i.tcp_abandon) for tcp_abandon
    netif.o(i.netif_set_ipaddr) refers to tcp.o(.data) for tcp_active_pcbs
    netif.o(i.netif_set_up) refers to etharp.o(i.etharp_request) for etharp_request
    pbuf.o(i.pbuf_alloc) refers to memp.o(i.memp_malloc) for memp_malloc
    pbuf.o(i.pbuf_alloc) refers to pbuf.o(i.pbuf_free) for pbuf_free
    pbuf.o(i.pbuf_alloc) refers to mem.o(i.mem_malloc) for mem_malloc
    pbuf.o(i.pbuf_chain) refers to pbuf.o(i.pbuf_cat) for pbuf_cat
    pbuf.o(i.pbuf_chain) refers to pbuf.o(i.pbuf_ref) for pbuf_ref
    pbuf.o(i.pbuf_coalesce) refers to pbuf.o(i.pbuf_alloc) for pbuf_alloc
    pbuf.o(i.pbuf_coalesce) refers to pbuf.o(i.pbuf_copy) for pbuf_copy
    pbuf.o(i.pbuf_coalesce) refers to pbuf.o(i.pbuf_free) for pbuf_free
    pbuf.o(i.pbuf_copy) refers to memcpya.o(.text) for __aeabi_memcpy
    pbuf.o(i.pbuf_copy_partial) refers to memcpya.o(.text) for __aeabi_memcpy
    pbuf.o(i.pbuf_dechain) refers to pbuf.o(i.pbuf_free) for pbuf_free
    pbuf.o(i.pbuf_free) refers to mem.o(i.mem_free) for mem_free
    pbuf.o(i.pbuf_free) refers to memp.o(i.memp_free) for memp_free
    pbuf.o(i.pbuf_realloc) refers to mem.o(i.mem_realloc) for mem_realloc
    pbuf.o(i.pbuf_realloc) refers to pbuf.o(i.pbuf_free) for pbuf_free
    pbuf.o(i.pbuf_take) refers to memcpya.o(.text) for __aeabi_memcpy
    raw.o(i.raw_input) refers to inet.o(i.ntohs) for ntohs
    raw.o(i.raw_input) refers to raw.o(.data) for .data
    raw.o(i.raw_new) refers to memp.o(i.memp_malloc) for memp_malloc
    raw.o(i.raw_new) refers to memseta.o(.text) for __aeabi_memclr4
    raw.o(i.raw_new) refers to raw.o(.data) for .data
    raw.o(i.raw_remove) refers to memp.o(i.memp_free) for memp_free
    raw.o(i.raw_remove) refers to raw.o(.data) for .data
    raw.o(i.raw_send) refers to raw.o(i.raw_sendto) for raw_sendto
    raw.o(i.raw_sendto) refers to pbuf.o(i.pbuf_header) for pbuf_header
    raw.o(i.raw_sendto) refers to pbuf.o(i.pbuf_alloc) for pbuf_alloc
    raw.o(i.raw_sendto) refers to pbuf.o(i.pbuf_chain) for pbuf_chain
    raw.o(i.raw_sendto) refers to ip.o(i.ip_route) for ip_route
    raw.o(i.raw_sendto) refers to ip.o(i.ip_output_if) for ip_output_if
    raw.o(i.raw_sendto) refers to pbuf.o(i.pbuf_free) for pbuf_free
    sys.o(i.sswt_handler) refers to sys_arch.o(i.sys_sem_signal) for sys_sem_signal
    sys.o(i.sys_mbox_fetch) refers to sys_arch.o(i.sys_arch_timeouts) for sys_arch_timeouts
    sys.o(i.sys_mbox_fetch) refers to sys_arch.o(i.sys_arch_mbox_fetch) for sys_arch_mbox_fetch
    sys.o(i.sys_mbox_fetch) refers to memp.o(i.memp_free) for memp_free
    sys.o(i.sys_msleep) refers to sys_arch.o(i.sys_sem_new) for sys_sem_new
    sys.o(i.sys_msleep) refers to sys.o(i.sys_sem_wait_timeout) for sys_sem_wait_timeout
    sys.o(i.sys_msleep) refers to sys_arch.o(i.sys_sem_free) for sys_sem_free
    sys.o(i.sys_sem_wait) refers to sys_arch.o(i.sys_arch_timeouts) for sys_arch_timeouts
    sys.o(i.sys_sem_wait) refers to sys_arch.o(i.sys_arch_sem_wait) for sys_arch_sem_wait
    sys.o(i.sys_sem_wait) refers to memp.o(i.memp_free) for memp_free
    sys.o(i.sys_sem_wait_timeout) refers to sys.o(i.sys_timeout) for sys_timeout
    sys.o(i.sys_sem_wait_timeout) refers to sys.o(i.sys_sem_wait) for sys_sem_wait
    sys.o(i.sys_sem_wait_timeout) refers to sys.o(i.sys_untimeout) for sys_untimeout
    sys.o(i.sys_sem_wait_timeout) refers to sys.o(i.sswt_handler) for sswt_handler
    sys.o(i.sys_timeout) refers to memp.o(i.memp_malloc) for memp_malloc
    sys.o(i.sys_timeout) refers to sys_arch.o(i.sys_arch_timeouts) for sys_arch_timeouts
    sys.o(i.sys_untimeout) refers to sys_arch.o(i.sys_arch_timeouts) for sys_arch_timeouts
    sys.o(i.sys_untimeout) refers to memp.o(i.memp_free) for memp_free
    tcp.o(i.tcp_abandon) refers to tcp.o(i.tcp_pcb_remove) for tcp_pcb_remove
    tcp.o(i.tcp_abandon) refers to tcp.o(i.tcp_segs_free) for tcp_segs_free
    tcp.o(i.tcp_abandon) refers to memp.o(i.memp_free) for memp_free
    tcp.o(i.tcp_abandon) refers to tcp_out.o(i.tcp_rst) for tcp_rst
    tcp.o(i.tcp_abandon) refers to tcp.o(.data) for .data
    tcp.o(i.tcp_alloc) refers to memp.o(i.memp_malloc) for memp_malloc
    tcp.o(i.tcp_alloc) refers to tcp.o(i.tcp_abandon) for tcp_abandon
    tcp.o(i.tcp_alloc) refers to memseta.o(.text) for __aeabi_memclr4
    tcp.o(i.tcp_alloc) refers to tcp.o(i.tcp_next_iss) for tcp_next_iss
    tcp.o(i.tcp_alloc) refers to tcp.o(.data) for .data
    tcp.o(i.tcp_alloc) refers to tcp.o(i.tcp_recv_null) for tcp_recv_null
    tcp.o(i.tcp_bind) refers to tcp.o(i.tcp_new_port) for tcp_new_port
    tcp.o(i.tcp_bind) refers to tcpip.o(i.tcp_timer_needed) for tcp_timer_needed
    tcp.o(i.tcp_bind) refers to tcp.o(.data) for .data
    tcp.o(i.tcp_close) refers to memp.o(i.memp_free) for memp_free
    tcp.o(i.tcp_close) refers to tcp.o(i.tcp_pcb_remove) for tcp_pcb_remove
    tcp.o(i.tcp_close) refers to tcp_out.o(i.tcp_send_ctrl) for tcp_send_ctrl
    tcp.o(i.tcp_close) refers to tcp_out.o(i.tcp_output) for tcp_output
    tcp.o(i.tcp_close) refers to tcp.o(.data) for .data
    tcp.o(i.tcp_connect) refers to tcp.o(i.tcp_new_port) for tcp_new_port
    tcp.o(i.tcp_connect) refers to tcp.o(i.tcp_next_iss) for tcp_next_iss
    tcp.o(i.tcp_connect) refers to tcp.o(i.tcp_eff_send_mss) for tcp_eff_send_mss
    tcp.o(i.tcp_connect) refers to tcpip.o(i.tcp_timer_needed) for tcp_timer_needed
    tcp.o(i.tcp_connect) refers to tcp_out.o(i.tcp_enqueue) for tcp_enqueue
    tcp.o(i.tcp_connect) refers to tcp_out.o(i.tcp_output) for tcp_output
    tcp.o(i.tcp_connect) refers to tcp.o(.data) for .data
    tcp.o(i.tcp_debug_state_str) refers to tcp.o(.data) for .data
    tcp.o(i.tcp_eff_send_mss) refers to ip.o(i.ip_route) for ip_route
    tcp.o(i.tcp_fasttmr) refers to tcp.o(i.tcp_recv_null) for tcp_recv_null
    tcp.o(i.tcp_fasttmr) refers to tcp_out.o(i.tcp_output) for tcp_output
    tcp.o(i.tcp_fasttmr) refers to tcp.o(.data) for .data
    tcp.o(i.tcp_listen_with_backlog) refers to memp.o(i.memp_malloc) for memp_malloc
    tcp.o(i.tcp_listen_with_backlog) refers to memp.o(i.memp_free) for memp_free
    tcp.o(i.tcp_listen_with_backlog) refers to tcpip.o(i.tcp_timer_needed) for tcp_timer_needed
    tcp.o(i.tcp_listen_with_backlog) refers to tcp.o(.data) for .data
    tcp.o(i.tcp_listen_with_backlog) refers to tcp.o(i.tcp_accept_null) for tcp_accept_null
    tcp.o(i.tcp_new) refers to tcp.o(i.tcp_alloc) for tcp_alloc
    tcp.o(i.tcp_new_port) refers to tcp.o(.data) for .data
    tcp.o(i.tcp_next_iss) refers to tcp.o(.data) for .data
    tcp.o(i.tcp_pcb_purge) refers to pbuf.o(i.pbuf_free) for pbuf_free
    tcp.o(i.tcp_pcb_purge) refers to tcp.o(i.tcp_segs_free) for tcp_segs_free
    tcp.o(i.tcp_pcb_remove) refers to tcp.o(i.tcp_pcb_purge) for tcp_pcb_purge
    tcp.o(i.tcp_pcb_remove) refers to tcp_out.o(i.tcp_output) for tcp_output
    tcp.o(i.tcp_pcb_remove) refers to tcp.o(.data) for .data
    tcp.o(i.tcp_recv_null) refers to tcp.o(i.tcp_recved) for tcp_recved
    tcp.o(i.tcp_recv_null) refers to pbuf.o(i.pbuf_free) for pbuf_free
    tcp.o(i.tcp_recv_null) refers to tcp.o(i.tcp_close) for tcp_close
    tcp.o(i.tcp_recved) refers to tcp.o(i.tcp_update_rcv_ann_wnd) for tcp_update_rcv_ann_wnd
    tcp.o(i.tcp_recved) refers to tcp_out.o(i.tcp_output) for tcp_output
    tcp.o(i.tcp_seg_free) refers to pbuf.o(i.pbuf_free) for pbuf_free
    tcp.o(i.tcp_seg_free) refers to memp.o(i.memp_free) for memp_free
    tcp.o(i.tcp_segs_free) refers to tcp.o(i.tcp_seg_free) for tcp_seg_free
    tcp.o(i.tcp_slowtmr) refers to tcp_out.o(i.tcp_zero_window_probe) for tcp_zero_window_probe
    tcp.o(i.tcp_slowtmr) refers to tcp_out.o(i.tcp_rexmit_rto) for tcp_rexmit_rto
    tcp.o(i.tcp_slowtmr) refers to tcp_out.o(i.tcp_keepalive) for tcp_keepalive
    tcp.o(i.tcp_slowtmr) refers to tcp.o(i.tcp_pcb_purge) for tcp_pcb_purge
    tcp.o(i.tcp_slowtmr) refers to tcp_out.o(i.tcp_rst) for tcp_rst
    tcp.o(i.tcp_slowtmr) refers to memp.o(i.memp_free) for memp_free
    tcp.o(i.tcp_slowtmr) refers to tcp_out.o(i.tcp_output) for tcp_output
    tcp.o(i.tcp_slowtmr) refers to tcp.o(.data) for .data
    tcp.o(i.tcp_slowtmr) refers to tcp.o(.constdata) for .constdata
    tcp.o(i.tcp_tmr) refers to tcp.o(i.tcp_fasttmr) for tcp_fasttmr
    tcp.o(i.tcp_tmr) refers to tcp.o(i.tcp_slowtmr) for tcp_slowtmr
    tcp.o(i.tcp_tmr) refers to tcp.o(.data) for .data
    tcp.o(.data) refers to tcp.o(.conststring) for .conststring
    tcp_in.o(i.tcp_input) refers to inet.o(i.ntohs) for ntohs
    tcp_in.o(i.tcp_input) refers to pbuf.o(i.pbuf_header) for pbuf_header
    tcp_in.o(i.tcp_input) refers to ip_addr.o(i.ip_addr_isbroadcast) for ip_addr_isbroadcast
    tcp_in.o(i.tcp_input) refers to inet.o(i.ntohl) for ntohl
    tcp_in.o(i.tcp_input) refers to tcp_in.o(i.tcp_timewait_input) for tcp_timewait_input
    tcp_in.o(i.tcp_input) refers to tcp_in.o(i.tcp_listen_input) for tcp_listen_input
    tcp_in.o(i.tcp_input) refers to tcp_out.o(i.tcp_rst) for tcp_rst
    tcp_in.o(i.tcp_input) refers to pbuf.o(i.pbuf_free) for pbuf_free
    tcp_in.o(i.tcp_input) refers to tcp.o(i.tcp_recv_null) for tcp_recv_null
    tcp_in.o(i.tcp_input) refers to tcp_in.o(i.tcp_process) for tcp_process
    tcp_in.o(i.tcp_input) refers to tcp.o(i.tcp_pcb_remove) for tcp_pcb_remove
    tcp_in.o(i.tcp_input) refers to memp.o(i.memp_free) for memp_free
    tcp_in.o(i.tcp_input) refers to tcp_out.o(i.tcp_output) for tcp_output
    tcp_in.o(i.tcp_input) refers to tcp_in.o(.data) for .data
    tcp_in.o(i.tcp_input) refers to tcp.o(.data) for tcp_active_pcbs
    tcp_in.o(i.tcp_input) refers to tcp_in.o(.bss) for .bss
    tcp_in.o(i.tcp_listen_input) refers to tcp_out.o(i.tcp_rst) for tcp_rst
    tcp_in.o(i.tcp_listen_input) refers to tcp.o(i.tcp_alloc) for tcp_alloc
    tcp_in.o(i.tcp_listen_input) refers to tcpip.o(i.tcp_timer_needed) for tcp_timer_needed
    tcp_in.o(i.tcp_listen_input) refers to tcp_in.o(i.tcp_parseopt) for tcp_parseopt
    tcp_in.o(i.tcp_listen_input) refers to tcp.o(i.tcp_eff_send_mss) for tcp_eff_send_mss
    tcp_in.o(i.tcp_listen_input) refers to tcp_out.o(i.tcp_enqueue) for tcp_enqueue
    tcp_in.o(i.tcp_listen_input) refers to tcp.o(i.tcp_abandon) for tcp_abandon
    tcp_in.o(i.tcp_listen_input) refers to tcp_out.o(i.tcp_output) for tcp_output
    tcp_in.o(i.tcp_listen_input) refers to tcp_in.o(.data) for .data
    tcp_in.o(i.tcp_listen_input) refers to tcp.o(.data) for tcp_active_pcbs
    tcp_in.o(i.tcp_parseopt) refers to inet.o(i.ntohs) for ntohs
    tcp_in.o(i.tcp_parseopt) refers to tcp_in.o(.data) for .data
    tcp_in.o(i.tcp_process) refers to tcp_out.o(i.tcp_output) for tcp_output
    tcp_in.o(i.tcp_process) refers to tcp_in.o(i.tcp_parseopt) for tcp_parseopt
    tcp_in.o(i.tcp_process) refers to inet.o(i.ntohl) for ntohl
    tcp_in.o(i.tcp_process) refers to tcp.o(i.tcp_eff_send_mss) for tcp_eff_send_mss
    tcp_in.o(i.tcp_process) refers to tcp.o(i.tcp_seg_free) for tcp_seg_free
    tcp_in.o(i.tcp_process) refers to tcp.o(i.tcp_abandon) for tcp_abandon
    tcp_in.o(i.tcp_process) refers to tcp_in.o(i.tcp_receive) for tcp_receive
    tcp_in.o(i.tcp_process) refers to tcp_out.o(i.tcp_rst) for tcp_rst
    tcp_in.o(i.tcp_process) refers to tcp_out.o(i.tcp_rexmit) for tcp_rexmit
    tcp_in.o(i.tcp_process) refers to tcp.o(i.tcp_pcb_purge) for tcp_pcb_purge
    tcp_in.o(i.tcp_process) refers to tcpip.o(i.tcp_timer_needed) for tcp_timer_needed
    tcp_in.o(i.tcp_process) refers to tcp_in.o(.data) for .data
    tcp_in.o(i.tcp_process) refers to tcp.o(.data) for tcp_ticks
    tcp_in.o(i.tcp_receive) refers to tcp_out.o(i.tcp_rexmit_fast) for tcp_rexmit_fast
    tcp_in.o(i.tcp_receive) refers to pbuf.o(i.pbuf_clen) for pbuf_clen
    tcp_in.o(i.tcp_receive) refers to inet.o(i.ntohs) for ntohs
    tcp_in.o(i.tcp_receive) refers to tcp.o(i.tcp_seg_free) for tcp_seg_free
    tcp_in.o(i.tcp_receive) refers to inet.o(i.ntohl) for ntohl
    tcp_in.o(i.tcp_receive) refers to pbuf.o(i.pbuf_header) for pbuf_header
    tcp_in.o(i.tcp_receive) refers to tcp_out.o(i.tcp_output) for tcp_output
    tcp_in.o(i.tcp_receive) refers to inet.o(i.htons) for htons
    tcp_in.o(i.tcp_receive) refers to pbuf.o(i.pbuf_realloc) for pbuf_realloc
    tcp_in.o(i.tcp_receive) refers to tcp.o(i.tcp_update_rcv_ann_wnd) for tcp_update_rcv_ann_wnd
    tcp_in.o(i.tcp_receive) refers to tcp_in.o(.data) for .data
    tcp_in.o(i.tcp_receive) refers to tcp.o(.data) for tcp_ticks
    tcp_in.o(i.tcp_receive) refers to tcp_in.o(.bss) for .bss
    tcp_in.o(i.tcp_receive) refers to tcp_out.o(i.tcp_send_empty_ack) for tcp_send_empty_ack
    tcp_in.o(i.tcp_timewait_input) refers to tcp_out.o(i.tcp_rst) for tcp_rst
    tcp_in.o(i.tcp_timewait_input) refers to tcp_out.o(i.tcp_output) for tcp_output
    tcp_in.o(i.tcp_timewait_input) refers to tcp_in.o(.data) for .data
    tcp_in.o(i.tcp_timewait_input) refers to tcp.o(.data) for tcp_ticks
    tcp_out.o(i.tcp_enqueue) refers to memp.o(i.memp_malloc) for memp_malloc
    tcp_out.o(i.tcp_enqueue) refers to pbuf.o(i.pbuf_alloc) for pbuf_alloc
    tcp_out.o(i.tcp_enqueue) refers to pbuf.o(i.pbuf_clen) for pbuf_clen
    tcp_out.o(i.tcp_enqueue) refers to memcpya.o(.text) for __aeabi_memcpy
    tcp_out.o(i.tcp_enqueue) refers to pbuf.o(i.pbuf_cat) for pbuf_cat
    tcp_out.o(i.tcp_enqueue) refers to pbuf.o(i.pbuf_header) for pbuf_header
    tcp_out.o(i.tcp_enqueue) refers to pbuf.o(i.pbuf_free) for pbuf_free
    tcp_out.o(i.tcp_enqueue) refers to inet.o(i.htons) for htons
    tcp_out.o(i.tcp_enqueue) refers to inet.o(i.htonl) for htonl
    tcp_out.o(i.tcp_enqueue) refers to inet.o(i.ntohs) for ntohs
    tcp_out.o(i.tcp_enqueue) refers to inet.o(i.ntohl) for ntohl
    tcp_out.o(i.tcp_enqueue) refers to tcp.o(i.tcp_segs_free) for tcp_segs_free
    tcp_out.o(i.tcp_enqueue) refers to memp.o(i.memp_free) for memp_free
    tcp_out.o(i.tcp_keepalive) refers to pbuf.o(i.pbuf_alloc) for pbuf_alloc
    tcp_out.o(i.tcp_keepalive) refers to inet.o(i.htonl) for htonl
    tcp_out.o(i.tcp_keepalive) refers to tcp_out.o(i.tcp_output_set_header) for tcp_output_set_header
    tcp_out.o(i.tcp_keepalive) refers to ip.o(i.ip_output) for ip_output
    tcp_out.o(i.tcp_keepalive) refers to pbuf.o(i.pbuf_free) for pbuf_free
    tcp_out.o(i.tcp_output) refers to inet.o(i.ntohl) for ntohl
    tcp_out.o(i.tcp_output) refers to tcp_out.o(i.tcp_send_empty_ack) for tcp_send_empty_ack
    tcp_out.o(i.tcp_output) refers to inet.o(i.ntohs) for ntohs
    tcp_out.o(i.tcp_output) refers to inet.o(i.htons) for htons
    tcp_out.o(i.tcp_output) refers to tcp_out.o(i.tcp_output_segment) for tcp_output_segment
    tcp_out.o(i.tcp_output) refers to tcp.o(i.tcp_seg_free) for tcp_seg_free
    tcp_out.o(i.tcp_output) refers to tcp_in.o(.data) for tcp_input_pcb
    tcp_out.o(i.tcp_output_segment) refers to inet.o(i.htonl) for htonl
    tcp_out.o(i.tcp_output_segment) refers to inet.o(i.htons) for htons
    tcp_out.o(i.tcp_output_segment) refers to ip.o(i.ip_route) for ip_route
    tcp_out.o(i.tcp_output_segment) refers to inet.o(i.ntohl) for ntohl
    tcp_out.o(i.tcp_output_segment) refers to ip.o(i.ip_output) for ip_output
    tcp_out.o(i.tcp_output_segment) refers to tcp.o(.data) for tcp_ticks
    tcp_out.o(i.tcp_output_set_header) refers to inet.o(i.htons) for htons
    tcp_out.o(i.tcp_output_set_header) refers to inet.o(i.htonl) for htonl
    tcp_out.o(i.tcp_output_set_header) refers to inet.o(i.ntohs) for ntohs
    tcp_out.o(i.tcp_rexmit) refers to inet.o(i.ntohl) for ntohl
    tcp_out.o(i.tcp_rexmit_fast) refers to tcp_out.o(i.tcp_rexmit) for tcp_rexmit
    tcp_out.o(i.tcp_rexmit_rto) refers to tcp_out.o(i.tcp_output) for tcp_output
    tcp_out.o(i.tcp_rst) refers to pbuf.o(i.pbuf_alloc) for pbuf_alloc
    tcp_out.o(i.tcp_rst) refers to inet.o(i.htons) for htons
    tcp_out.o(i.tcp_rst) refers to inet.o(i.htonl) for htonl
    tcp_out.o(i.tcp_rst) refers to inet.o(i.ntohs) for ntohs
    tcp_out.o(i.tcp_rst) refers to ip.o(i.ip_output) for ip_output
    tcp_out.o(i.tcp_rst) refers to pbuf.o(i.pbuf_free) for pbuf_free
    tcp_out.o(i.tcp_send_ctrl) refers to tcp_out.o(i.tcp_enqueue) for tcp_enqueue
    tcp_out.o(i.tcp_send_empty_ack) refers to pbuf.o(i.pbuf_alloc) for pbuf_alloc
    tcp_out.o(i.tcp_send_empty_ack) refers to inet.o(i.htonl) for htonl
    tcp_out.o(i.tcp_send_empty_ack) refers to tcp_out.o(i.tcp_output_set_header) for tcp_output_set_header
    tcp_out.o(i.tcp_send_empty_ack) refers to ip.o(i.ip_output) for ip_output
    tcp_out.o(i.tcp_send_empty_ack) refers to pbuf.o(i.pbuf_free) for pbuf_free
    tcp_out.o(i.tcp_write) refers to tcp_out.o(i.tcp_enqueue) for tcp_enqueue
    tcp_out.o(i.tcp_zero_window_probe) refers to inet.o(i.ntohs) for ntohs
    tcp_out.o(i.tcp_zero_window_probe) refers to pbuf.o(i.pbuf_alloc) for pbuf_alloc
    tcp_out.o(i.tcp_zero_window_probe) refers to tcp_out.o(i.tcp_output_set_header) for tcp_output_set_header
    tcp_out.o(i.tcp_zero_window_probe) refers to inet.o(i.htons) for htons
    tcp_out.o(i.tcp_zero_window_probe) refers to ip.o(i.ip_output) for ip_output
    tcp_out.o(i.tcp_zero_window_probe) refers to pbuf.o(i.pbuf_free) for pbuf_free
    udp.o(i.udp_bind) refers to udp.o(.data) for .data
    udp.o(i.udp_connect) refers to udp.o(i.udp_bind) for udp_bind
    udp.o(i.udp_connect) refers to udp.o(.data) for .data
    udp.o(i.udp_disconnect) refers to ip_addr.o(.constdata) for ip_addr_any
    udp.o(i.udp_input) refers to inet.o(i.ntohs) for ntohs
    udp.o(i.udp_input) refers to pbuf.o(i.pbuf_header) for pbuf_header
    udp.o(i.udp_input) refers to ip_addr.o(i.ip_addr_isbroadcast) for ip_addr_isbroadcast
    udp.o(i.udp_input) refers to inet.o(i.ntohl) for ntohl
    udp.o(i.udp_input) refers to icmp.o(i.icmp_dest_unreach) for icmp_dest_unreach
    udp.o(i.udp_input) refers to pbuf.o(i.pbuf_free) for pbuf_free
    udp.o(i.udp_input) refers to udp.o(.data) for .data
    udp.o(i.udp_new) refers to memp.o(i.memp_malloc) for memp_malloc
    udp.o(i.udp_new) refers to memseta.o(.text) for __aeabi_memclr4
    udp.o(i.udp_remove) refers to memp.o(i.memp_free) for memp_free
    udp.o(i.udp_remove) refers to udp.o(.data) for .data
    udp.o(i.udp_send) refers to udp.o(i.udp_sendto) for udp_sendto
    udp.o(i.udp_sendto) refers to ip.o(i.ip_route) for ip_route
    udp.o(i.udp_sendto) refers to udp.o(i.udp_sendto_if) for udp_sendto_if
    udp.o(i.udp_sendto_if) refers to udp.o(i.udp_bind) for udp_bind
    udp.o(i.udp_sendto_if) refers to pbuf.o(i.pbuf_header) for pbuf_header
    udp.o(i.udp_sendto_if) refers to pbuf.o(i.pbuf_alloc) for pbuf_alloc
    udp.o(i.udp_sendto_if) refers to pbuf.o(i.pbuf_chain) for pbuf_chain
    udp.o(i.udp_sendto_if) refers to inet.o(i.htons) for htons
    udp.o(i.udp_sendto_if) refers to pbuf.o(i.pbuf_free) for pbuf_free
    udp.o(i.udp_sendto_if) refers to ip.o(i.ip_output_if) for ip_output_if
    autoip.o(i.autoip_arp_announce) refers to etharp.o(i.etharp_raw) for etharp_raw
    autoip.o(i.autoip_arp_announce) refers to etharp.o(.constdata) for ethzero
    autoip.o(i.autoip_arp_reply) refers to memcmp.o(.text) for memcmp
    autoip.o(i.autoip_arp_reply) refers to autoip.o(i.autoip_start) for autoip_start
    autoip.o(i.autoip_arp_reply) refers to autoip.o(i.autoip_arp_announce) for autoip_arp_announce
    autoip.o(i.autoip_network_changed) refers to netif.o(i.netif_set_down) for netif_set_down
    autoip.o(i.autoip_network_changed) refers to autoip.o(i.autoip_start_probing) for autoip_start_probing
    autoip.o(i.autoip_start) refers to netif.o(i.netif_is_up) for netif_is_up
    autoip.o(i.autoip_start) refers to netif.o(i.netif_set_down) for netif_set_down
    autoip.o(i.autoip_start) refers to inet.o(i.htonl) for htonl
    autoip.o(i.autoip_start) refers to inet.o(i.ntohl) for ntohl
    autoip.o(i.autoip_start) refers to autoip.o(i.autoip_start_probing) for autoip_start_probing
    autoip.o(i.autoip_start) refers to mem.o(i.mem_malloc) for mem_malloc
    autoip.o(i.autoip_stop) refers to netif.o(i.netif_set_down) for netif_set_down
    autoip.o(i.autoip_tmr) refers to etharp.o(i.etharp_raw) for etharp_raw
    autoip.o(i.autoip_tmr) refers to autoip.o(i.autoip_arp_announce) for autoip_arp_announce
    autoip.o(i.autoip_tmr) refers to inet.o(i.htonl) for htonl
    autoip.o(i.autoip_tmr) refers to netif.o(i.netif_set_ipaddr) for netif_set_ipaddr
    autoip.o(i.autoip_tmr) refers to netif.o(i.netif_set_netmask) for netif_set_netmask
    autoip.o(i.autoip_tmr) refers to netif.o(i.netif_set_gw) for netif_set_gw
    autoip.o(i.autoip_tmr) refers to netif.o(i.netif_set_up) for netif_set_up
    autoip.o(i.autoip_tmr) refers to netif.o(.data) for netif_list
    autoip.o(i.autoip_tmr) refers to etharp.o(.constdata) for ethzero
    autoip.o(i.autoip_tmr) refers to ip_addr.o(.constdata) for ip_addr_any
    icmp.o(i.icmp_dest_unreach) refers to pbuf.o(i.pbuf_alloc) for pbuf_alloc
    icmp.o(i.icmp_dest_unreach) refers to memcpya.o(.text) for __aeabi_memcpy
    icmp.o(i.icmp_dest_unreach) refers to inet_chksum.o(i.inet_chksum) for inet_chksum
    icmp.o(i.icmp_dest_unreach) refers to ip.o(i.ip_output) for ip_output
    icmp.o(i.icmp_dest_unreach) refers to pbuf.o(i.pbuf_free) for pbuf_free
    icmp.o(i.icmp_input) refers to inet.o(i.ntohs) for ntohs
    icmp.o(i.icmp_input) refers to pbuf.o(i.pbuf_header) for pbuf_header
    icmp.o(i.icmp_input) refers to inet.o(i.ntohl) for ntohl
    icmp.o(i.icmp_input) refers to ip_addr.o(i.ip_addr_isbroadcast) for ip_addr_isbroadcast
    icmp.o(i.icmp_input) refers to inet_chksum.o(i.inet_chksum_pbuf) for inet_chksum_pbuf
    icmp.o(i.icmp_input) refers to pbuf.o(i.pbuf_alloc) for pbuf_alloc
    icmp.o(i.icmp_input) refers to pbuf.o(i.pbuf_copy) for pbuf_copy
    icmp.o(i.icmp_input) refers to pbuf.o(i.pbuf_free) for pbuf_free
    icmp.o(i.icmp_input) refers to inet.o(i.htons) for htons
    icmp.o(i.icmp_input) refers to ip.o(i.ip_output_if) for ip_output_if
    inet.o(i.inet_addr) refers to inet.o(i.inet_aton) for inet_aton
    inet.o(i.inet_ntoa) refers to inet.o(.bss) for .bss
    inet_chksum.o(i.inet_chksum) refers to inet_chksum.o(i.lwip_standard_chksum) for lwip_standard_chksum
    inet_chksum.o(i.inet_chksum_pbuf) refers to inet_chksum.o(i.lwip_standard_chksum) for lwip_standard_chksum
    inet_chksum.o(i.inet_chksum_pseudo) refers to inet_chksum.o(i.lwip_standard_chksum) for lwip_standard_chksum
    inet_chksum.o(i.inet_chksum_pseudo) refers to inet.o(i.htons) for htons
    inet_chksum.o(i.lwip_standard_chksum) refers to inet.o(i.htons) for htons
    ip.o(i.ip_input) refers to inet.o(i.ntohs) for ntohs
    ip.o(i.ip_input) refers to pbuf.o(i.pbuf_free) for pbuf_free
    ip.o(i.ip_input) refers to pbuf.o(i.pbuf_realloc) for pbuf_realloc
    ip.o(i.ip_input) refers to netif.o(i.netif_is_up) for netif_is_up
    ip.o(i.ip_input) refers to ip_addr.o(i.ip_addr_isbroadcast) for ip_addr_isbroadcast
    ip.o(i.ip_input) refers to inet.o(i.ntohl) for ntohl
    ip.o(i.ip_input) refers to inet.o(i.htons) for htons
    ip.o(i.ip_input) refers to raw.o(i.raw_input) for raw_input
    ip.o(i.ip_input) refers to udp.o(i.udp_input) for udp_input
    ip.o(i.ip_input) refers to tcp_in.o(i.tcp_input) for tcp_input
    ip.o(i.ip_input) refers to icmp.o(i.icmp_input) for icmp_input
    ip.o(i.ip_input) refers to icmp.o(i.icmp_dest_unreach) for icmp_dest_unreach
    ip.o(i.ip_input) refers to netif.o(.data) for netif_list
    ip.o(i.ip_input) refers to ip.o(.data) for .data
    ip.o(i.ip_output) refers to ip.o(i.ip_route) for ip_route
    ip.o(i.ip_output) refers to ip.o(i.ip_output_if) for ip_output_if
    ip.o(i.ip_output_if) refers to pbuf.o(i.pbuf_header) for pbuf_header
    ip.o(i.ip_output_if) refers to inet.o(i.ntohs) for ntohs
    ip.o(i.ip_output_if) refers to inet.o(i.htons) for htons
    ip.o(i.ip_output_if) refers to ip.o(.data) for .data
    ip.o(i.ip_route) refers to netif.o(i.netif_is_up) for netif_is_up
    ip.o(i.ip_route) refers to netif.o(.data) for netif_list
    etharp.o(i.etharp_arp_input) refers to inet.o(i.htons) for htons
    etharp.o(i.etharp_arp_input) refers to autoip.o(i.autoip_arp_reply) for autoip_arp_reply
    etharp.o(i.etharp_arp_input) refers to etharp.o(i.update_arp_entry) for update_arp_entry
    etharp.o(i.etharp_arp_input) refers to dhcp.o(i.dhcp_arp_reply) for dhcp_arp_reply
    etharp.o(i.etharp_arp_input) refers to pbuf.o(i.pbuf_free) for pbuf_free
    etharp.o(i.etharp_arp_input) refers to etharp.o(.constdata) for .constdata
    etharp.o(i.etharp_find_addr) refers to etharp.o(i.find_entry) for find_entry
    etharp.o(i.etharp_find_addr) refers to etharp.o(.bss) for .bss
    etharp.o(i.etharp_ip_input) refers to etharp.o(i.update_arp_entry) for update_arp_entry
    etharp.o(i.etharp_output) refers to pbuf.o(i.pbuf_header) for pbuf_header
    etharp.o(i.etharp_output) refers to ip_addr.o(i.ip_addr_isbroadcast) for ip_addr_isbroadcast
    etharp.o(i.etharp_output) refers to inet.o(i.ntohl) for ntohl
    etharp.o(i.etharp_output) refers to etharp.o(i.etharp_send_ip) for etharp_send_ip
    etharp.o(i.etharp_output) refers to etharp.o(i.etharp_query) for etharp_query
    etharp.o(i.etharp_output) refers to etharp.o(.constdata) for .constdata
    etharp.o(i.etharp_query) refers to ip_addr.o(i.ip_addr_isbroadcast) for ip_addr_isbroadcast
    etharp.o(i.etharp_query) refers to inet.o(i.ntohl) for ntohl
    etharp.o(i.etharp_query) refers to etharp.o(i.find_entry) for find_entry
    etharp.o(i.etharp_query) refers to etharp.o(i.etharp_request) for etharp_request
    etharp.o(i.etharp_query) refers to etharp.o(i.etharp_send_ip) for etharp_send_ip
    etharp.o(i.etharp_query) refers to etharp.o(.bss) for .bss
    etharp.o(i.etharp_raw) refers to pbuf.o(i.pbuf_alloc) for pbuf_alloc
    etharp.o(i.etharp_raw) refers to inet.o(i.htons) for htons
    etharp.o(i.etharp_raw) refers to pbuf.o(i.pbuf_free) for pbuf_free
    etharp.o(i.etharp_raw) refers to etharp.o(.constdata) for .constdata
    etharp.o(i.etharp_request) refers to etharp.o(i.etharp_raw) for etharp_raw
    etharp.o(i.etharp_request) refers to etharp.o(.constdata) for .constdata
    etharp.o(i.etharp_send_ip) refers to inet.o(i.htons) for htons
    etharp.o(i.etharp_tmr) refers to etharp.o(.bss) for .bss
    etharp.o(i.ethernet_input) refers to inet.o(i.htons) for htons
    etharp.o(i.ethernet_input) refers to pbuf.o(i.pbuf_header) for pbuf_header
    etharp.o(i.ethernet_input) refers to pbuf.o(i.pbuf_free) for pbuf_free
    etharp.o(i.ethernet_input) refers to ip.o(i.ip_input) for ip_input
    etharp.o(i.ethernet_input) refers to etharp.o(i.etharp_arp_input) for etharp_arp_input
    etharp.o(i.find_entry) refers to etharp.o(.data) for .data
    etharp.o(i.find_entry) refers to etharp.o(.bss) for .bss
    etharp.o(i.update_arp_entry) refers to ip_addr.o(i.ip_addr_isbroadcast) for ip_addr_isbroadcast
    etharp.o(i.update_arp_entry) refers to inet.o(i.ntohl) for ntohl
    etharp.o(i.update_arp_entry) refers to etharp.o(i.find_entry) for find_entry
    etharp.o(i.update_arp_entry) refers to etharp.o(.bss) for .bss
    ethernetif.o(i.arp_timer) refers to etharp.o(i.etharp_tmr) for etharp_tmr
    ethernetif.o(i.arp_timer) refers to sys.o(i.sys_timeout) for sys_timeout
    ethernetif.o(i.ethernetif_init) refers to ethernetif.o(i.low_level_init) for low_level_init
    ethernetif.o(i.ethernetif_init) refers to sys.o(i.sys_timeout) for sys_timeout
    ethernetif.o(i.ethernetif_init) refers to etharp.o(i.etharp_output) for etharp_output
    ethernetif.o(i.ethernetif_init) refers to ethernetif.o(i.low_level_output) for low_level_output
    ethernetif.o(i.ethernetif_init) refers to ethernetif.o(i.arp_timer) for arp_timer
    ethernetif.o(i.ethernetif_input) refers to queue.o(i.xQueueGenericReceive) for xQueueGenericReceive
    ethernetif.o(i.ethernetif_input) refers to ethernetif.o(i.low_level_input) for low_level_input
    ethernetif.o(i.ethernetif_input) refers to pbuf.o(i.pbuf_free) for pbuf_free
    ethernetif.o(i.ethernetif_input) refers to ethernetif.o(.data) for .data
    ethernetif.o(i.low_level_init) refers to queue.o(i.xQueueCreateCountingSemaphore) for xQueueCreateCountingSemaphore
    ethernetif.o(i.low_level_init) refers to stm32f4x7_eth.o(i.ETH_MACAddressConfig) for ETH_MACAddressConfig
    ethernetif.o(i.low_level_init) refers to stm32f4x7_eth.o(i.ETH_DMATxDescChainInit) for ETH_DMATxDescChainInit
    ethernetif.o(i.low_level_init) refers to stm32f4x7_eth.o(i.ETH_DMARxDescChainInit) for ETH_DMARxDescChainInit
    ethernetif.o(i.low_level_init) refers to stm32f4x7_eth.o(i.ETH_DMARxDescReceiveITConfig) for ETH_DMARxDescReceiveITConfig
    ethernetif.o(i.low_level_init) refers to stm32f4x7_eth.o(i.ETH_DMATxDescChecksumInsertionConfig) for ETH_DMATxDescChecksumInsertionConfig
    ethernetif.o(i.low_level_init) refers to tasks.o(i.xTaskGenericCreate) for xTaskGenericCreate
    ethernetif.o(i.low_level_init) refers to stm32f4x7_eth.o(i.ETH_Start) for ETH_Start
    ethernetif.o(i.low_level_init) refers to ethernetif.o(.data) for .data
    ethernetif.o(i.low_level_init) refers to stm32f4x7_eth.o(.bss) for Tx_Buff
    ethernetif.o(i.low_level_init) refers to stm32f4x7_eth.o(.bss) for DMATxDscrTab
    ethernetif.o(i.low_level_init) refers to stm32f4x7_eth.o(.bss) for Rx_Buff
    ethernetif.o(i.low_level_init) refers to stm32f4x7_eth.o(.bss) for DMARxDscrTab
    ethernetif.o(i.low_level_init) refers to ethernetif.o(i.ethernetif_input) for ethernetif_input
    ethernetif.o(i.low_level_input) refers to stm32f4x7_eth.o(i.ETH_Get_Received_Frame_interrupt) for ETH_Get_Received_Frame_interrupt
    ethernetif.o(i.low_level_input) refers to pbuf.o(i.pbuf_alloc) for pbuf_alloc
    ethernetif.o(i.low_level_input) refers to memcpya.o(.text) for __aeabi_memcpy
    ethernetif.o(i.low_level_input) refers to stm32f4x7_eth.o(.data) for DMA_RX_FRAME_infos
    ethernetif.o(i.low_level_output) refers to queue.o(i.xQueueCreate) for xQueueCreate
    ethernetif.o(i.low_level_output) refers to queue.o(i.xQueueGenericSend) for xQueueGenericSend
    ethernetif.o(i.low_level_output) refers to queue.o(i.xQueueGenericReceive) for xQueueGenericReceive
    ethernetif.o(i.low_level_output) refers to memcpya.o(.text) for __aeabi_memcpy
    ethernetif.o(i.low_level_output) refers to stm32f4x7_eth.o(i.ETH_Prepare_Transmit_Descriptors) for ETH_Prepare_Transmit_Descriptors
    ethernetif.o(i.low_level_output) refers to ethernetif.o(.data) for .data
    ethernetif.o(i.low_level_output) refers to stm32f4x7_eth.o(.data) for DMATxDescToSet
    sys_arch.o(i.sys_arch_mbox_fetch) refers to tasks.o(i.xTaskGetTickCount) for xTaskGetTickCount
    sys_arch.o(i.sys_arch_mbox_fetch) refers to queue.o(i.xQueueGenericReceive) for xQueueGenericReceive
    sys_arch.o(i.sys_arch_mbox_tryfetch) refers to queue.o(i.xQueueGenericReceive) for xQueueGenericReceive
    sys_arch.o(i.sys_arch_protect) refers to port.o(i.vPortEnterCritical) for vPortEnterCritical
    sys_arch.o(i.sys_arch_sem_wait) refers to tasks.o(i.xTaskGetTickCount) for xTaskGetTickCount
    sys_arch.o(i.sys_arch_sem_wait) refers to queue.o(i.xQueueGenericReceive) for xQueueGenericReceive
    sys_arch.o(i.sys_arch_timeouts) refers to tasks.o(i.xTaskGetCurrentTaskHandle) for xTaskGetCurrentTaskHandle
    sys_arch.o(i.sys_arch_timeouts) refers to sys_arch.o(.bss) for .bss
    sys_arch.o(i.sys_arch_timeouts) refers to sys_arch.o(.data) for .data
    sys_arch.o(i.sys_arch_unprotect) refers to port.o(i.vPortExitCritical) for vPortExitCritical
    sys_arch.o(i.sys_assert) refers to port.o(i.vPortEnterCritical) for vPortEnterCritical
    sys_arch.o(i.sys_init) refers to sys_arch.o(.bss) for .bss
    sys_arch.o(i.sys_init) refers to sys_arch.o(.data) for .data
    sys_arch.o(i.sys_mbox_free) refers to queue.o(i.uxQueueMessagesWaiting) for uxQueueMessagesWaiting
    sys_arch.o(i.sys_mbox_free) refers to queue.o(i.vQueueDelete) for vQueueDelete
    sys_arch.o(i.sys_mbox_new) refers to queue.o(i.xQueueCreate) for xQueueCreate
    sys_arch.o(i.sys_mbox_post) refers to queue.o(i.xQueueGenericSend) for xQueueGenericSend
    sys_arch.o(i.sys_mbox_trypost) refers to queue.o(i.xQueueGenericSend) for xQueueGenericSend
    sys_arch.o(i.sys_sem_free) refers to queue.o(i.vQueueDelete) for vQueueDelete
    sys_arch.o(i.sys_sem_new) refers to queue.o(i.xQueueCreate) for xQueueCreate
    sys_arch.o(i.sys_sem_new) refers to queue.o(i.xQueueGenericSend) for xQueueGenericSend
    sys_arch.o(i.sys_sem_new) refers to queue.o(i.xQueueGenericReceive) for xQueueGenericReceive
    sys_arch.o(i.sys_sem_signal) refers to queue.o(i.xQueueGenericSend) for xQueueGenericSend
    sys_arch.o(i.sys_thread_new) refers to tasks.o(i.xTaskGenericCreate) for xTaskGenericCreate
    sys_arch.o(i.sys_thread_new) refers to sys_arch.o(.data) for .data
    sys_arch.o(i.sys_thread_new) refers to sys_arch.o(.bss) for .bss
    stm32f4xx_usart.o(i.USART_DeInit) refers to stm32f4xx_rcc.o(i.RCC_APB2PeriphResetCmd) for RCC_APB2PeriphResetCmd
    stm32f4xx_usart.o(i.USART_DeInit) refers to stm32f4xx_rcc.o(i.RCC_APB1PeriphResetCmd) for RCC_APB1PeriphResetCmd
    stm32f4xx_usart.o(i.USART_Init) refers to stm32f4xx_rcc.o(i.RCC_GetClocksFreq) for RCC_GetClocksFreq
    stm32f4xx_adc.o(i.ADC_DeInit) refers to stm32f4xx_rcc.o(i.RCC_APB2PeriphResetCmd) for RCC_APB2PeriphResetCmd
    stm32f4xx_flash.o(i.FLASH_EraseAllSectors) refers to stm32f4xx_flash.o(i.FLASH_WaitForLastOperation) for FLASH_WaitForLastOperation
    stm32f4xx_flash.o(i.FLASH_EraseSector) refers to stm32f4xx_flash.o(i.FLASH_WaitForLastOperation) for FLASH_WaitForLastOperation
    stm32f4xx_flash.o(i.FLASH_OB_Launch) refers to stm32f4xx_flash.o(i.FLASH_WaitForLastOperation) for FLASH_WaitForLastOperation
    stm32f4xx_flash.o(i.FLASH_OB_RDPConfig) refers to stm32f4xx_flash.o(i.FLASH_WaitForLastOperation) for FLASH_WaitForLastOperation
    stm32f4xx_flash.o(i.FLASH_OB_UserConfig) refers to stm32f4xx_flash.o(i.FLASH_WaitForLastOperation) for FLASH_WaitForLastOperation
    stm32f4xx_flash.o(i.FLASH_OB_WRPConfig) refers to stm32f4xx_flash.o(i.FLASH_WaitForLastOperation) for FLASH_WaitForLastOperation
    stm32f4xx_flash.o(i.FLASH_ProgramByte) refers to stm32f4xx_flash.o(i.FLASH_WaitForLastOperation) for FLASH_WaitForLastOperation
    stm32f4xx_flash.o(i.FLASH_ProgramDoubleWord) refers to stm32f4xx_flash.o(i.FLASH_WaitForLastOperation) for FLASH_WaitForLastOperation
    stm32f4xx_flash.o(i.FLASH_ProgramHalfWord) refers to stm32f4xx_flash.o(i.FLASH_WaitForLastOperation) for FLASH_WaitForLastOperation
    stm32f4xx_flash.o(i.FLASH_ProgramWord) refers to stm32f4xx_flash.o(i.FLASH_WaitForLastOperation) for FLASH_WaitForLastOperation
    stm32f4xx_flash.o(i.FLASH_WaitForLastOperation) refers to stm32f4xx_flash.o(i.FLASH_GetStatus) for FLASH_GetStatus
    stm32f4xx_gpio.o(i.GPIO_DeInit) refers to stm32f4xx_rcc.o(i.RCC_AHB1PeriphResetCmd) for RCC_AHB1PeriphResetCmd
    stm32f4xx_rcc.o(i.RCC_GetClocksFreq) refers to stm32f4xx_rcc.o(.data) for .data
    stm32f4xx_rcc.o(i.RCC_WaitForHSEStartUp) refers to stm32f4xx_rcc.o(i.RCC_GetFlagStatus) for RCC_GetFlagStatus
    stm32f4xx_sdio.o(i.SDIO_DeInit) refers to stm32f4xx_rcc.o(i.RCC_APB2PeriphResetCmd) for RCC_APB2PeriphResetCmd
    stm32f4xx_syscfg.o(i.SYSCFG_DeInit) refers to stm32f4xx_rcc.o(i.RCC_APB2PeriphResetCmd) for RCC_APB2PeriphResetCmd
    stm32f4xx_i2c.o(i.I2C_DeInit) refers to stm32f4xx_rcc.o(i.RCC_APB1PeriphResetCmd) for RCC_APB1PeriphResetCmd
    stm32f4xx_i2c.o(i.I2C_Init) refers to stm32f4xx_rcc.o(i.RCC_GetClocksFreq) for RCC_GetClocksFreq
    stm32f4x7_eth.o(i.ETH_CheckFrameReceived) refers to stm32f4x7_eth.o(.data) for .data
    stm32f4x7_eth.o(i.ETH_DMARxDescChainInit) refers to stm32f4x7_eth.o(.data) for .data
    stm32f4x7_eth.o(i.ETH_DMARxDescChainInit) refers to stm32f4x7_eth.o(.bss) for .bss
    stm32f4x7_eth.o(i.ETH_DMATxDescChainInit) refers to stm32f4x7_eth.o(.data) for .data
    stm32f4x7_eth.o(i.ETH_DeInit) refers to stm32f4xx_rcc.o(i.RCC_AHB1PeriphResetCmd) for RCC_AHB1PeriphResetCmd
    stm32f4x7_eth.o(i.ETH_Get_Received_Frame) refers to stm32f4x7_eth.o(.data) for .data
    stm32f4x7_eth.o(i.ETH_Get_Received_Frame_interrupt) refers to stm32f4x7_eth.o(.data) for .data
    stm32f4x7_eth.o(i.ETH_Init) refers to stm32f4xx_rcc.o(i.RCC_GetClocksFreq) for RCC_GetClocksFreq
    stm32f4x7_eth.o(i.ETH_Init) refers to stm32f4x7_eth.o(i.ETH_WritePHYRegister) for ETH_WritePHYRegister
    stm32f4x7_eth.o(i.ETH_Init) refers to stm32f4x7_eth.o(i.ETH_Delay) for ETH_Delay
    stm32f4x7_eth.o(i.ETH_Init) refers to stm32f4x7_eth.o(i.ETH_ReadPHYRegister) for ETH_ReadPHYRegister
    stm32f4x7_eth.o(i.ETH_PHYLoopBackCmd) refers to stm32f4x7_eth.o(i.ETH_ReadPHYRegister) for ETH_ReadPHYRegister
    stm32f4x7_eth.o(i.ETH_PHYLoopBackCmd) refers to stm32f4x7_eth.o(i.ETH_WritePHYRegister) for ETH_WritePHYRegister
    stm32f4x7_eth.o(i.ETH_Prepare_Transmit_Descriptors) refers to stm32f4x7_eth.o(.data) for .data
    stm32f4x7_eth.o(i.ETH_Start) refers to stm32f4x7_eth.o(i.ETH_MACTransmissionCmd) for ETH_MACTransmissionCmd
    stm32f4x7_eth.o(i.ETH_Start) refers to stm32f4x7_eth.o(i.ETH_FlushTransmitFIFO) for ETH_FlushTransmitFIFO
    stm32f4x7_eth.o(i.ETH_Start) refers to stm32f4x7_eth.o(i.ETH_MACReceptionCmd) for ETH_MACReceptionCmd
    stm32f4x7_eth.o(i.ETH_Start) refers to stm32f4x7_eth.o(i.ETH_DMATransmissionCmd) for ETH_DMATransmissionCmd
    stm32f4x7_eth.o(i.ETH_Start) refers to stm32f4x7_eth.o(i.ETH_DMAReceptionCmd) for ETH_DMAReceptionCmd
    stm324xg_eval_lcd.o(i.LCD_Clear) refers to stm324xg_eval_lcd.o(i.LCD_SetCursor) for LCD_SetCursor
    stm324xg_eval_lcd.o(i.LCD_ClearLine) refers to stm324xg_eval_lcd.o(i.LCD_DisplayChar) for LCD_DisplayChar
    stm324xg_eval_lcd.o(i.LCD_ClearLine) refers to stm324xg_eval_lcd.o(.data) for .data
    stm324xg_eval_lcd.o(i.LCD_ClosedPolyLine) refers to stm324xg_eval_lcd.o(i.LCD_PolyLine) for LCD_PolyLine
    stm324xg_eval_lcd.o(i.LCD_ClosedPolyLine) refers to stm324xg_eval_lcd.o(i.LCD_DrawUniLine) for LCD_DrawUniLine
    stm324xg_eval_lcd.o(i.LCD_ClosedPolyLineRelative) refers to stm324xg_eval_lcd.o(i.LCD_PolyLineRelativeClosed) for LCD_PolyLineRelativeClosed
    stm324xg_eval_lcd.o(i.LCD_CtrlLinesConfig) refers to stm32f4xx_rcc.o(i.RCC_AHB1PeriphClockCmd) for RCC_AHB1PeriphClockCmd
    stm324xg_eval_lcd.o(i.LCD_CtrlLinesConfig) refers to stm32f4xx_rcc.o(i.RCC_AHB3PeriphClockCmd) for RCC_AHB3PeriphClockCmd
    stm324xg_eval_lcd.o(i.LCD_CtrlLinesConfig) refers to stm32f4xx_gpio.o(i.GPIO_PinAFConfig) for GPIO_PinAFConfig
    stm324xg_eval_lcd.o(i.LCD_CtrlLinesConfig) refers to stm32f4xx_gpio.o(i.GPIO_Init) for GPIO_Init
    stm324xg_eval_lcd.o(i.LCD_DeInit) refers to stm32f4xx_fsmc.o(i.FSMC_NORSRAMCmd) for FSMC_NORSRAMCmd
    stm324xg_eval_lcd.o(i.LCD_DeInit) refers to stm32f4xx_fsmc.o(i.FSMC_NORSRAMDeInit) for FSMC_NORSRAMDeInit
    stm324xg_eval_lcd.o(i.LCD_DeInit) refers to stm32f4xx_gpio.o(i.GPIO_PinAFConfig) for GPIO_PinAFConfig
    stm324xg_eval_lcd.o(i.LCD_DeInit) refers to stm32f4xx_gpio.o(i.GPIO_Init) for GPIO_Init
    stm324xg_eval_lcd.o(i.LCD_DisplayChar) refers to stm324xg_eval_lcd.o(i.LCD_DrawChar) for LCD_DrawChar
    stm324xg_eval_lcd.o(i.LCD_DisplayChar) refers to stm324xg_eval_lcd.o(.data) for .data
    stm324xg_eval_lcd.o(i.LCD_DisplayStringLine) refers to stm324xg_eval_lcd.o(i.LCD_DisplayChar) for LCD_DisplayChar
    stm324xg_eval_lcd.o(i.LCD_DisplayStringLine) refers to stm324xg_eval_lcd.o(.data) for .data
    stm324xg_eval_lcd.o(i.LCD_DrawChar) refers to stm324xg_eval_lcd.o(i.LCD_SetCursor) for LCD_SetCursor
    stm324xg_eval_lcd.o(i.LCD_DrawChar) refers to stm324xg_eval_lcd.o(.data) for .data
    stm324xg_eval_lcd.o(i.LCD_DrawCircle) refers to stm324xg_eval_lcd.o(i.LCD_SetCursor) for LCD_SetCursor
    stm324xg_eval_lcd.o(i.LCD_DrawCircle) refers to stm324xg_eval_lcd.o(.data) for .data
    stm324xg_eval_lcd.o(i.LCD_DrawFullCircle) refers to stm324xg_eval_lcd.o(i.LCD_DrawLine) for LCD_DrawLine
    stm324xg_eval_lcd.o(i.LCD_DrawFullCircle) refers to stm324xg_eval_lcd.o(i.LCD_DrawCircle) for LCD_DrawCircle
    stm324xg_eval_lcd.o(i.LCD_DrawFullCircle) refers to stm324xg_eval_lcd.o(.data) for .data
    stm324xg_eval_lcd.o(i.LCD_DrawFullRect) refers to stm324xg_eval_lcd.o(i.LCD_DrawLine) for LCD_DrawLine
    stm324xg_eval_lcd.o(i.LCD_DrawFullRect) refers to stm324xg_eval_lcd.o(.data) for .data
    stm324xg_eval_lcd.o(i.LCD_DrawLine) refers to stm324xg_eval_lcd.o(i.LCD_SetCursor) for LCD_SetCursor
    stm324xg_eval_lcd.o(i.LCD_DrawLine) refers to stm324xg_eval_lcd.o(.data) for .data
    stm324xg_eval_lcd.o(i.LCD_DrawMonoPict) refers to stm324xg_eval_lcd.o(i.LCD_SetCursor) for LCD_SetCursor
    stm324xg_eval_lcd.o(i.LCD_DrawMonoPict) refers to stm324xg_eval_lcd.o(.data) for .data
    stm324xg_eval_lcd.o(i.LCD_DrawRect) refers to stm324xg_eval_lcd.o(i.LCD_DrawLine) for LCD_DrawLine
    stm324xg_eval_lcd.o(i.LCD_DrawUniLine) refers to stm324xg_eval_lcd.o(i.PutPixel) for PutPixel
    stm324xg_eval_lcd.o(i.LCD_FSMCConfig) refers to stm32f4xx_fsmc.o(i.FSMC_NORSRAMInit) for FSMC_NORSRAMInit
    stm324xg_eval_lcd.o(i.LCD_FSMCConfig) refers to stm32f4xx_fsmc.o(i.FSMC_NORSRAMCmd) for FSMC_NORSRAMCmd
    stm324xg_eval_lcd.o(i.LCD_FillPolyLine) refers to dfltui.o(.text) for __aeabi_ui2d
    stm324xg_eval_lcd.o(i.LCD_FillPolyLine) refers to dflti.o(.text) for __aeabi_i2d
    stm324xg_eval_lcd.o(i.LCD_FillPolyLine) refers to cdcmple.o(.text) for __aeabi_cdcmple
    stm324xg_eval_lcd.o(i.LCD_FillPolyLine) refers to cdrcmple.o(.text) for __aeabi_cdrcmple
    stm324xg_eval_lcd.o(i.LCD_FillPolyLine) refers to stm324xg_eval_lcd.o(i.LCD_DrawLine) for LCD_DrawLine
    stm324xg_eval_lcd.o(i.LCD_FillPolyLine) refers to stm324xg_eval_lcd.o(i.PutPixel) for PutPixel
    stm324xg_eval_lcd.o(i.LCD_FillPolyLine) refers to stm324xg_eval_lcd.o(.data) for .data
    stm324xg_eval_lcd.o(i.LCD_GetColors) refers to stm324xg_eval_lcd.o(.data) for .data
    stm324xg_eval_lcd.o(i.LCD_GetFont) refers to stm324xg_eval_lcd.o(.data) for .data
    stm324xg_eval_lcd.o(i.LCD_PolyLine) refers to stm324xg_eval_lcd.o(i.LCD_DrawUniLine) for LCD_DrawUniLine
    stm324xg_eval_lcd.o(i.LCD_PolyLineRelative) refers to stm324xg_eval_lcd.o(i.LCD_PolyLineRelativeClosed) for LCD_PolyLineRelativeClosed
    stm324xg_eval_lcd.o(i.LCD_PolyLineRelativeClosed) refers to stm324xg_eval_lcd.o(i.LCD_DrawUniLine) for LCD_DrawUniLine
    stm324xg_eval_lcd.o(i.LCD_SetBackColor) refers to stm324xg_eval_lcd.o(.data) for .data
    stm324xg_eval_lcd.o(i.LCD_SetColors) refers to stm324xg_eval_lcd.o(.data) for .data
    stm324xg_eval_lcd.o(i.LCD_SetCursor) refers to stm324xg_eval_lcd.o(i.LCD_WriteReg) for LCD_WriteReg
    stm324xg_eval_lcd.o(i.LCD_SetFont) refers to stm324xg_eval_lcd.o(.data) for .data
    stm324xg_eval_lcd.o(i.LCD_SetTextColor) refers to stm324xg_eval_lcd.o(.data) for .data
    stm324xg_eval_lcd.o(i.PutPixel) refers to stm324xg_eval_lcd.o(i.LCD_DrawLine) for LCD_DrawLine
    stm324xg_eval_lcd.o(i.STM324xG_LCD_Init) refers to stm324xg_eval_lcd.o(i.LCD_CtrlLinesConfig) for LCD_CtrlLinesConfig
    stm324xg_eval_lcd.o(i.STM324xG_LCD_Init) refers to stm324xg_eval_lcd.o(i.LCD_FSMCConfig) for LCD_FSMCConfig
    stm324xg_eval_lcd.o(i.STM324xG_LCD_Init) refers to stm324xg_eval_lcd.o(i.LCD_ReadReg) for LCD_ReadReg
    stm324xg_eval_lcd.o(i.STM324xG_LCD_Init) refers to stm324xg_eval_lcd.o(i.LCD_WriteReg) for LCD_WriteReg
    stm324xg_eval_lcd.o(i.STM324xG_LCD_Init) refers to stm324xg_eval_lcd.o(i.delay_ms) for delay_ms
    stm324xg_eval_lcd.o(i.STM324xG_LCD_Init) refers to stm324xg_eval_lcd.o(.data) for .data
    stm324xg_eval_lcd.o(.data) refers to stm324xg_eval_lcd.o(.constdata) for ASCII16x24_Table
    stm324xg_eval_lcd.o(.data) refers to stm324xg_eval_lcd.o(.constdata) for ASCII12x12_Table
    stm324xg_eval_lcd.o(.data) refers to stm324xg_eval_lcd.o(.constdata) for ASCII8x12_Table
    stm324xg_eval_lcd.o(.data) refers to stm324xg_eval_lcd.o(.constdata) for ASCII8x8_Table
    stm324xg_eval.o(i.SD_LowLevel_DMA_RxConfig) refers to stm32f4xx_dma.o(i.DMA_ClearFlag) for DMA_ClearFlag
    stm324xg_eval.o(i.SD_LowLevel_DMA_RxConfig) refers to stm32f4xx_dma.o(i.DMA_Cmd) for DMA_Cmd
    stm324xg_eval.o(i.SD_LowLevel_DMA_RxConfig) refers to stm32f4xx_dma.o(i.DMA_DeInit) for DMA_DeInit
    stm324xg_eval.o(i.SD_LowLevel_DMA_RxConfig) refers to stm32f4xx_dma.o(i.DMA_Init) for DMA_Init
    stm324xg_eval.o(i.SD_LowLevel_DMA_RxConfig) refers to stm32f4xx_dma.o(i.DMA_ITConfig) for DMA_ITConfig
    stm324xg_eval.o(i.SD_LowLevel_DMA_RxConfig) refers to stm32f4xx_dma.o(i.DMA_FlowControllerConfig) for DMA_FlowControllerConfig
    stm324xg_eval.o(i.SD_LowLevel_DMA_TxConfig) refers to stm32f4xx_dma.o(i.DMA_ClearFlag) for DMA_ClearFlag
    stm324xg_eval.o(i.SD_LowLevel_DMA_TxConfig) refers to stm32f4xx_dma.o(i.DMA_Cmd) for DMA_Cmd
    stm324xg_eval.o(i.SD_LowLevel_DMA_TxConfig) refers to stm32f4xx_dma.o(i.DMA_DeInit) for DMA_DeInit
    stm324xg_eval.o(i.SD_LowLevel_DMA_TxConfig) refers to stm32f4xx_dma.o(i.DMA_Init) for DMA_Init
    stm324xg_eval.o(i.SD_LowLevel_DMA_TxConfig) refers to stm32f4xx_dma.o(i.DMA_ITConfig) for DMA_ITConfig
    stm324xg_eval.o(i.SD_LowLevel_DMA_TxConfig) refers to stm32f4xx_dma.o(i.DMA_FlowControllerConfig) for DMA_FlowControllerConfig
    stm324xg_eval.o(i.SD_LowLevel_DeInit) refers to stm32f4xx_sdio.o(i.SDIO_ClockCmd) for SDIO_ClockCmd
    stm324xg_eval.o(i.SD_LowLevel_DeInit) refers to stm32f4xx_sdio.o(i.SDIO_SetPowerState) for SDIO_SetPowerState
    stm324xg_eval.o(i.SD_LowLevel_DeInit) refers to stm32f4xx_sdio.o(i.SDIO_DeInit) for SDIO_DeInit
    stm324xg_eval.o(i.SD_LowLevel_DeInit) refers to stm32f4xx_rcc.o(i.RCC_APB2PeriphClockCmd) for RCC_APB2PeriphClockCmd
    stm324xg_eval.o(i.SD_LowLevel_DeInit) refers to stm32f4xx_gpio.o(i.GPIO_PinAFConfig) for GPIO_PinAFConfig
    stm324xg_eval.o(i.SD_LowLevel_DeInit) refers to stm32f4xx_gpio.o(i.GPIO_Init) for GPIO_Init
    stm324xg_eval.o(i.SD_LowLevel_Init) refers to stm32f4xx_rcc.o(i.RCC_AHB1PeriphClockCmd) for RCC_AHB1PeriphClockCmd
    stm324xg_eval.o(i.SD_LowLevel_Init) refers to stm32f4xx_gpio.o(i.GPIO_PinAFConfig) for GPIO_PinAFConfig
    stm324xg_eval.o(i.SD_LowLevel_Init) refers to stm32f4xx_gpio.o(i.GPIO_Init) for GPIO_Init
    stm324xg_eval.o(i.SD_LowLevel_Init) refers to stm32f4xx_rcc.o(i.RCC_APB2PeriphClockCmd) for RCC_APB2PeriphClockCmd
    stm324xg_eval.o(i.STM_EVAL_COMInit) refers to stm32f4xx_rcc.o(i.RCC_AHB1PeriphClockCmd) for RCC_AHB1PeriphClockCmd
    stm324xg_eval.o(i.STM_EVAL_COMInit) refers to stm32f4xx_rcc.o(i.RCC_APB1PeriphClockCmd) for RCC_APB1PeriphClockCmd
    stm324xg_eval.o(i.STM_EVAL_COMInit) refers to stm32f4xx_gpio.o(i.GPIO_PinAFConfig) for GPIO_PinAFConfig
    stm324xg_eval.o(i.STM_EVAL_COMInit) refers to stm32f4xx_gpio.o(i.GPIO_Init) for GPIO_Init
    stm324xg_eval.o(i.STM_EVAL_COMInit) refers to stm32f4xx_usart.o(i.USART_Init) for USART_Init
    stm324xg_eval.o(i.STM_EVAL_COMInit) refers to stm32f4xx_usart.o(i.USART_Cmd) for USART_Cmd
    stm324xg_eval.o(i.STM_EVAL_COMInit) refers to stm324xg_eval.o(.constdata) for .constdata
    stm324xg_eval.o(i.STM_EVAL_COMInit) refers to stm324xg_eval.o(.data) for .data
    stm324xg_eval.o(i.STM_EVAL_LEDInit) refers to stm32f4xx_rcc.o(i.RCC_AHB1PeriphClockCmd) for RCC_AHB1PeriphClockCmd
    stm324xg_eval.o(i.STM_EVAL_LEDInit) refers to stm32f4xx_gpio.o(i.GPIO_Init) for GPIO_Init
    stm324xg_eval.o(i.STM_EVAL_LEDInit) refers to stm324xg_eval.o(.constdata) for .constdata
    stm324xg_eval.o(i.STM_EVAL_LEDInit) refers to stm324xg_eval.o(.data) for .data
    stm324xg_eval.o(i.STM_EVAL_LEDOff) refers to stm324xg_eval.o(.constdata) for .constdata
    stm324xg_eval.o(i.STM_EVAL_LEDOff) refers to stm324xg_eval.o(.data) for .data
    stm324xg_eval.o(i.STM_EVAL_LEDOn) refers to stm324xg_eval.o(.constdata) for .constdata
    stm324xg_eval.o(i.STM_EVAL_LEDOn) refers to stm324xg_eval.o(.data) for .data
    stm324xg_eval.o(i.STM_EVAL_LEDToggle) refers to stm324xg_eval.o(.data) for .data
    stm324xg_eval.o(i.STM_EVAL_LEDToggle) refers to stm324xg_eval.o(.constdata) for .constdata
    stm324xg_eval.o(i.STM_EVAL_PBGetState) refers to stm32f4xx_gpio.o(i.GPIO_ReadInputDataBit) for GPIO_ReadInputDataBit
    stm324xg_eval.o(i.STM_EVAL_PBGetState) refers to stm324xg_eval.o(.constdata) for .constdata
    stm324xg_eval.o(i.STM_EVAL_PBGetState) refers to stm324xg_eval.o(.data) for .data
    stm324xg_eval.o(i.STM_EVAL_PBInit) refers to stm32f4xx_rcc.o(i.RCC_AHB1PeriphClockCmd) for RCC_AHB1PeriphClockCmd
    stm324xg_eval.o(i.STM_EVAL_PBInit) refers to stm32f4xx_rcc.o(i.RCC_APB2PeriphClockCmd) for RCC_APB2PeriphClockCmd
    stm324xg_eval.o(i.STM_EVAL_PBInit) refers to stm32f4xx_gpio.o(i.GPIO_Init) for GPIO_Init
    stm324xg_eval.o(i.STM_EVAL_PBInit) refers to stm32f4xx_syscfg.o(i.SYSCFG_EXTILineConfig) for SYSCFG_EXTILineConfig
    stm324xg_eval.o(i.STM_EVAL_PBInit) refers to stm32f4xx_exti.o(i.EXTI_Init) for EXTI_Init
    stm324xg_eval.o(i.STM_EVAL_PBInit) refers to misc.o(i.NVIC_Init) for NVIC_Init
    stm324xg_eval.o(i.STM_EVAL_PBInit) refers to stm324xg_eval.o(.constdata) for .constdata
    stm324xg_eval.o(i.STM_EVAL_PBInit) refers to stm324xg_eval.o(.data) for .data
    stm324xg_eval.o(i.sEE_LowLevel_DMAConfig) refers to stm32f4xx_dma.o(i.DMA_Init) for DMA_Init
    stm324xg_eval.o(i.sEE_LowLevel_DMAConfig) refers to stm324xg_eval.o(.bss) for .bss
    stm324xg_eval.o(i.sEE_LowLevel_DeInit) refers to stm32f4xx_i2c.o(i.I2C_Cmd) for I2C_Cmd
    stm324xg_eval.o(i.sEE_LowLevel_DeInit) refers to stm32f4xx_i2c.o(i.I2C_DeInit) for I2C_DeInit
    stm324xg_eval.o(i.sEE_LowLevel_DeInit) refers to stm32f4xx_rcc.o(i.RCC_APB1PeriphClockCmd) for RCC_APB1PeriphClockCmd
    stm324xg_eval.o(i.sEE_LowLevel_DeInit) refers to stm32f4xx_gpio.o(i.GPIO_Init) for GPIO_Init
    stm324xg_eval.o(i.sEE_LowLevel_DeInit) refers to misc.o(i.NVIC_Init) for NVIC_Init
    stm324xg_eval.o(i.sEE_LowLevel_DeInit) refers to stm32f4xx_dma.o(i.DMA_Cmd) for DMA_Cmd
    stm324xg_eval.o(i.sEE_LowLevel_DeInit) refers to stm32f4xx_dma.o(i.DMA_DeInit) for DMA_DeInit
    stm324xg_eval.o(i.sEE_LowLevel_DeInit) refers to stm324xg_eval.o(.data) for .data
    stm324xg_eval.o(i.sEE_LowLevel_Init) refers to stm32f4xx_rcc.o(i.RCC_APB1PeriphClockCmd) for RCC_APB1PeriphClockCmd
    stm324xg_eval.o(i.sEE_LowLevel_Init) refers to stm32f4xx_rcc.o(i.RCC_AHB1PeriphClockCmd) for RCC_AHB1PeriphClockCmd
    stm324xg_eval.o(i.sEE_LowLevel_Init) refers to stm32f4xx_rcc.o(i.RCC_APB2PeriphClockCmd) for RCC_APB2PeriphClockCmd
    stm324xg_eval.o(i.sEE_LowLevel_Init) refers to stm32f4xx_rcc.o(i.RCC_APB1PeriphResetCmd) for RCC_APB1PeriphResetCmd
    stm324xg_eval.o(i.sEE_LowLevel_Init) refers to stm32f4xx_gpio.o(i.GPIO_PinAFConfig) for GPIO_PinAFConfig
    stm324xg_eval.o(i.sEE_LowLevel_Init) refers to stm32f4xx_gpio.o(i.GPIO_Init) for GPIO_Init
    stm324xg_eval.o(i.sEE_LowLevel_Init) refers to misc.o(i.NVIC_Init) for NVIC_Init
    stm324xg_eval.o(i.sEE_LowLevel_Init) refers to stm32f4xx_dma.o(i.DMA_ClearFlag) for DMA_ClearFlag
    stm324xg_eval.o(i.sEE_LowLevel_Init) refers to stm32f4xx_dma.o(i.DMA_Cmd) for DMA_Cmd
    stm324xg_eval.o(i.sEE_LowLevel_Init) refers to stm32f4xx_dma.o(i.DMA_DeInit) for DMA_DeInit
    stm324xg_eval.o(i.sEE_LowLevel_Init) refers to stm32f4xx_dma.o(i.DMA_Init) for DMA_Init
    stm324xg_eval.o(i.sEE_LowLevel_Init) refers to stm32f4xx_dma.o(i.DMA_ITConfig) for DMA_ITConfig
    stm324xg_eval.o(i.sEE_LowLevel_Init) refers to stm324xg_eval.o(.data) for .data
    stm324xg_eval.o(i.sEE_LowLevel_Init) refers to stm324xg_eval.o(.bss) for .bss
    port.o(.emb_text) refers to tasks.o(i.vTaskSwitchContext) for vTaskSwitchContext
    port.o(.emb_text) refers to tasks.o(.data) for pxCurrentTCB
    port.o(i.vPortEnterCritical) refers to port.o(.emb_text) for vPortSetInterruptMask
    port.o(i.vPortEnterCritical) refers to port.o(.data) for .data
    port.o(i.vPortExitCritical) refers to port.o(.emb_text) for vPortClearInterruptMask
    port.o(i.vPortExitCritical) refers to port.o(.data) for .data
    port.o(i.xPortStartScheduler) refers to port.o(.emb_text) for vPortStartFirstTask
    port.o(i.xPortStartScheduler) refers to port.o(.data) for .data
    port.o(i.xPortSysTickHandler) refers to port.o(.emb_text) for vPortSetInterruptMask
    port.o(i.xPortSysTickHandler) refers to tasks.o(i.vTaskIncrementTick) for vTaskIncrementTick
    heap_2.o(i.pvPortMalloc) refers to tasks.o(i.vTaskSuspendAll) for vTaskSuspendAll
    heap_2.o(i.pvPortMalloc) refers to tasks.o(i.xTaskResumeAll) for xTaskResumeAll
    heap_2.o(i.pvPortMalloc) refers to heap_2.o(.data) for .data
    heap_2.o(i.pvPortMalloc) refers to heap_2.o(.bss) for .bss
    heap_2.o(i.vPortFree) refers to tasks.o(i.vTaskSuspendAll) for vTaskSuspendAll
    heap_2.o(i.vPortFree) refers to tasks.o(i.xTaskResumeAll) for xTaskResumeAll
    heap_2.o(i.vPortFree) refers to heap_2.o(.data) for .data
    heap_2.o(i.xPortGetFreeHeapSize) refers to heap_2.o(.data) for .data
    tasks.o(i.prvCheckTasksWaitingTermination) refers to tasks.o(i.vTaskSuspendAll) for vTaskSuspendAll
    tasks.o(i.prvCheckTasksWaitingTermination) refers to tasks.o(i.xTaskResumeAll) for xTaskResumeAll
    tasks.o(i.prvCheckTasksWaitingTermination) refers to port.o(i.vPortEnterCritical) for vPortEnterCritical
    tasks.o(i.prvCheckTasksWaitingTermination) refers to list.o(i.vListRemove) for vListRemove
    tasks.o(i.prvCheckTasksWaitingTermination) refers to port.o(i.vPortExitCritical) for vPortExitCritical
    tasks.o(i.prvCheckTasksWaitingTermination) refers to heap_2.o(i.vPortFree) for vPortFree
    tasks.o(i.prvCheckTasksWaitingTermination) refers to tasks.o(.data) for .data
    tasks.o(i.prvCheckTasksWaitingTermination) refers to tasks.o(.bss) for .bss
    tasks.o(i.prvIdleTask) refers to tasks.o(i.prvCheckTasksWaitingTermination) for prvCheckTasksWaitingTermination
    tasks.o(i.prvIdleTask) refers to port.o(i.vPortYieldFromISR) for vPortYieldFromISR
    tasks.o(i.prvIdleTask) refers to tasks.o(.bss) for .bss
    tasks.o(i.uxTaskGetNumberOfTasks) refers to tasks.o(.data) for .data
    tasks.o(i.uxTaskPriorityGet) refers to port.o(i.vPortEnterCritical) for vPortEnterCritical
    tasks.o(i.uxTaskPriorityGet) refers to port.o(i.vPortExitCritical) for vPortExitCritical
    tasks.o(i.uxTaskPriorityGet) refers to tasks.o(.data) for .data
    tasks.o(i.vTaskDelay) refers to tasks.o(i.vTaskSuspendAll) for vTaskSuspendAll
    tasks.o(i.vTaskDelay) refers to list.o(i.vListRemove) for vListRemove
    tasks.o(i.vTaskDelay) refers to list.o(i.vListInsert) for vListInsert
    tasks.o(i.vTaskDelay) refers to tasks.o(i.xTaskResumeAll) for xTaskResumeAll
    tasks.o(i.vTaskDelay) refers to port.o(i.vPortYieldFromISR) for vPortYieldFromISR
    tasks.o(i.vTaskDelay) refers to tasks.o(.data) for .data
    tasks.o(i.vTaskDelete) refers to port.o(i.vPortEnterCritical) for vPortEnterCritical
    tasks.o(i.vTaskDelete) refers to list.o(i.vListRemove) for vListRemove
    tasks.o(i.vTaskDelete) refers to list.o(i.vListInsertEnd) for vListInsertEnd
    tasks.o(i.vTaskDelete) refers to port.o(i.vPortExitCritical) for vPortExitCritical
    tasks.o(i.vTaskDelete) refers to port.o(i.vPortYieldFromISR) for vPortYieldFromISR
    tasks.o(i.vTaskDelete) refers to tasks.o(.data) for .data
    tasks.o(i.vTaskDelete) refers to tasks.o(.bss) for .bss
    tasks.o(i.vTaskEndScheduler) refers to port.o(.emb_text) for vPortSetInterruptMask
    tasks.o(i.vTaskEndScheduler) refers to port.o(i.vPortEndScheduler) for vPortEndScheduler
    tasks.o(i.vTaskEndScheduler) refers to tasks.o(.data) for .data
    tasks.o(i.vTaskIncrementTick) refers to list.o(i.vListRemove) for vListRemove
    tasks.o(i.vTaskIncrementTick) refers to list.o(i.vListInsertEnd) for vListInsertEnd
    tasks.o(i.vTaskIncrementTick) refers to tasks.o(.data) for .data
    tasks.o(i.vTaskIncrementTick) refers to tasks.o(.bss) for .bss
    tasks.o(i.vTaskMissedYield) refers to tasks.o(.data) for .data
    tasks.o(i.vTaskPlaceOnEventList) refers to list.o(i.vListInsert) for vListInsert
    tasks.o(i.vTaskPlaceOnEventList) refers to list.o(i.vListRemove) for vListRemove
    tasks.o(i.vTaskPlaceOnEventList) refers to tasks.o(.data) for .data
    tasks.o(i.vTaskPriorityDisinherit) refers to list.o(i.vListRemove) for vListRemove
    tasks.o(i.vTaskPriorityDisinherit) refers to list.o(i.vListInsertEnd) for vListInsertEnd
    tasks.o(i.vTaskPriorityDisinherit) refers to tasks.o(.data) for .data
    tasks.o(i.vTaskPriorityDisinherit) refers to tasks.o(.bss) for .bss
    tasks.o(i.vTaskPriorityInherit) refers to list.o(i.vListRemove) for vListRemove
    tasks.o(i.vTaskPriorityInherit) refers to list.o(i.vListInsertEnd) for vListInsertEnd
    tasks.o(i.vTaskPriorityInherit) refers to tasks.o(.data) for .data
    tasks.o(i.vTaskPriorityInherit) refers to tasks.o(.bss) for .bss
    tasks.o(i.vTaskPrioritySet) refers to port.o(i.vPortEnterCritical) for vPortEnterCritical
    tasks.o(i.vTaskPrioritySet) refers to list.o(i.vListRemove) for vListRemove
    tasks.o(i.vTaskPrioritySet) refers to list.o(i.vListInsertEnd) for vListInsertEnd
    tasks.o(i.vTaskPrioritySet) refers to port.o(i.vPortYieldFromISR) for vPortYieldFromISR
    tasks.o(i.vTaskPrioritySet) refers to port.o(i.vPortExitCritical) for vPortExitCritical
    tasks.o(i.vTaskPrioritySet) refers to tasks.o(.data) for .data
    tasks.o(i.vTaskPrioritySet) refers to tasks.o(.bss) for .bss
    tasks.o(i.vTaskSetTimeOutState) refers to tasks.o(.data) for .data
    tasks.o(i.vTaskStartScheduler) refers to tasks.o(i.xTaskGenericCreate) for xTaskGenericCreate
    tasks.o(i.vTaskStartScheduler) refers to port.o(.emb_text) for vPortSetInterruptMask
    tasks.o(i.vTaskStartScheduler) refers to port.o(i.xPortStartScheduler) for xPortStartScheduler
    tasks.o(i.vTaskStartScheduler) refers to tasks.o(i.prvIdleTask) for prvIdleTask
    tasks.o(i.vTaskStartScheduler) refers to tasks.o(.data) for .data
    tasks.o(i.vTaskSuspendAll) refers to tasks.o(.data) for .data
    tasks.o(i.vTaskSwitchContext) refers to tasks.o(.data) for .data
    tasks.o(i.vTaskSwitchContext) refers to tasks.o(.bss) for .bss
    tasks.o(i.xTaskCheckForTimeOut) refers to port.o(i.vPortEnterCritical) for vPortEnterCritical
    tasks.o(i.xTaskCheckForTimeOut) refers to tasks.o(i.vTaskSetTimeOutState) for vTaskSetTimeOutState
    tasks.o(i.xTaskCheckForTimeOut) refers to port.o(i.vPortExitCritical) for vPortExitCritical
    tasks.o(i.xTaskCheckForTimeOut) refers to tasks.o(.data) for .data
    tasks.o(i.xTaskGenericCreate) refers to heap_2.o(i.pvPortMalloc) for pvPortMalloc
    tasks.o(i.xTaskGenericCreate) refers to memseta.o(.text) for __aeabi_memset
    tasks.o(i.xTaskGenericCreate) refers to strncpy.o(.text) for strncpy
    tasks.o(i.xTaskGenericCreate) refers to list.o(i.vListInitialiseItem) for vListInitialiseItem
    tasks.o(i.xTaskGenericCreate) refers to port.o(i.pxPortInitialiseStack) for pxPortInitialiseStack
    tasks.o(i.xTaskGenericCreate) refers to port.o(i.vPortEnterCritical) for vPortEnterCritical
    tasks.o(i.xTaskGenericCreate) refers to heap_2.o(i.vPortFree) for vPortFree
    tasks.o(i.xTaskGenericCreate) refers to list.o(i.vListInitialise) for vListInitialise
    tasks.o(i.xTaskGenericCreate) refers to list.o(i.vListInsertEnd) for vListInsertEnd
    tasks.o(i.xTaskGenericCreate) refers to port.o(i.vPortExitCritical) for vPortExitCritical
    tasks.o(i.xTaskGenericCreate) refers to port.o(i.vPortYieldFromISR) for vPortYieldFromISR
    tasks.o(i.xTaskGenericCreate) refers to tasks.o(.data) for .data
    tasks.o(i.xTaskGenericCreate) refers to tasks.o(.bss) for .bss
    tasks.o(i.xTaskGetCurrentTaskHandle) refers to tasks.o(.data) for .data
    tasks.o(i.xTaskGetTickCount) refers to port.o(i.vPortEnterCritical) for vPortEnterCritical
    tasks.o(i.xTaskGetTickCount) refers to port.o(i.vPortExitCritical) for vPortExitCritical
    tasks.o(i.xTaskGetTickCount) refers to tasks.o(.data) for .data
    tasks.o(i.xTaskGetTickCountFromISR) refers to tasks.o(.data) for .data
    tasks.o(i.xTaskRemoveFromEventList) refers to list.o(i.vListRemove) for vListRemove
    tasks.o(i.xTaskRemoveFromEventList) refers to list.o(i.vListInsertEnd) for vListInsertEnd
    tasks.o(i.xTaskRemoveFromEventList) refers to tasks.o(.data) for .data
    tasks.o(i.xTaskRemoveFromEventList) refers to tasks.o(.bss) for .bss
    tasks.o(i.xTaskResumeAll) refers to port.o(i.vPortEnterCritical) for vPortEnterCritical
    tasks.o(i.xTaskResumeAll) refers to list.o(i.vListRemove) for vListRemove
    tasks.o(i.xTaskResumeAll) refers to list.o(i.vListInsertEnd) for vListInsertEnd
    tasks.o(i.xTaskResumeAll) refers to tasks.o(i.vTaskIncrementTick) for vTaskIncrementTick
    tasks.o(i.xTaskResumeAll) refers to port.o(i.vPortYieldFromISR) for vPortYieldFromISR
    tasks.o(i.xTaskResumeAll) refers to port.o(i.vPortExitCritical) for vPortExitCritical
    tasks.o(i.xTaskResumeAll) refers to tasks.o(.data) for .data
    tasks.o(i.xTaskResumeAll) refers to tasks.o(.bss) for .bss
    croutine.o(i.prvCheckDelayedList) refers to tasks.o(i.xTaskGetTickCount) for xTaskGetTickCount
    croutine.o(i.prvCheckDelayedList) refers to port.o(.emb_text) for vPortSetInterruptMask
    croutine.o(i.prvCheckDelayedList) refers to list.o(i.vListRemove) for vListRemove
    croutine.o(i.prvCheckDelayedList) refers to list.o(i.vListInsertEnd) for vListInsertEnd
    croutine.o(i.prvCheckDelayedList) refers to croutine.o(.data) for .data
    croutine.o(i.prvCheckDelayedList) refers to croutine.o(.bss) for .bss
    croutine.o(i.prvCheckPendingReadyList) refers to port.o(.emb_text) for vPortSetInterruptMask
    croutine.o(i.prvCheckPendingReadyList) refers to list.o(i.vListRemove) for vListRemove
    croutine.o(i.prvCheckPendingReadyList) refers to list.o(i.vListInsertEnd) for vListInsertEnd
    croutine.o(i.prvCheckPendingReadyList) refers to croutine.o(.data) for .data
    croutine.o(i.prvCheckPendingReadyList) refers to croutine.o(.bss) for .bss
    croutine.o(i.vCoRoutineAddToDelayedList) refers to list.o(i.vListRemove) for vListRemove
    croutine.o(i.vCoRoutineAddToDelayedList) refers to list.o(i.vListInsert) for vListInsert
    croutine.o(i.vCoRoutineAddToDelayedList) refers to croutine.o(.data) for .data
    croutine.o(i.vCoRoutineSchedule) refers to croutine.o(i.prvCheckPendingReadyList) for prvCheckPendingReadyList
    croutine.o(i.vCoRoutineSchedule) refers to croutine.o(i.prvCheckDelayedList) for prvCheckDelayedList
    croutine.o(i.vCoRoutineSchedule) refers to croutine.o(.bss) for .bss
    croutine.o(i.vCoRoutineSchedule) refers to croutine.o(.data) for .data
    croutine.o(i.xCoRoutineCreate) refers to heap_2.o(i.pvPortMalloc) for pvPortMalloc
    croutine.o(i.xCoRoutineCreate) refers to list.o(i.vListInitialise) for vListInitialise
    croutine.o(i.xCoRoutineCreate) refers to list.o(i.vListInitialiseItem) for vListInitialiseItem
    croutine.o(i.xCoRoutineCreate) refers to list.o(i.vListInsertEnd) for vListInsertEnd
    croutine.o(i.xCoRoutineCreate) refers to croutine.o(.data) for .data
    croutine.o(i.xCoRoutineCreate) refers to croutine.o(.bss) for .bss
    croutine.o(i.xCoRoutineRemoveFromEventList) refers to list.o(i.vListRemove) for vListRemove
    croutine.o(i.xCoRoutineRemoveFromEventList) refers to list.o(i.vListInsertEnd) for vListInsertEnd
    croutine.o(i.xCoRoutineRemoveFromEventList) refers to croutine.o(.bss) for .bss
    croutine.o(i.xCoRoutineRemoveFromEventList) refers to croutine.o(.data) for .data
    queue.o(i.prvCopyDataFromQueue) refers to memcpya.o(.text) for __aeabi_memcpy
    queue.o(i.prvCopyDataToQueue) refers to memcpya.o(.text) for __aeabi_memcpy
    queue.o(i.prvCopyDataToQueue) refers to tasks.o(i.vTaskPriorityDisinherit) for vTaskPriorityDisinherit
    queue.o(i.prvUnlockQueue) refers to port.o(i.vPortEnterCritical) for vPortEnterCritical
    queue.o(i.prvUnlockQueue) refers to tasks.o(i.xTaskRemoveFromEventList) for xTaskRemoveFromEventList
    queue.o(i.prvUnlockQueue) refers to tasks.o(i.vTaskMissedYield) for vTaskMissedYield
    queue.o(i.prvUnlockQueue) refers to port.o(i.vPortExitCritical) for vPortExitCritical
    queue.o(i.uxQueueMessagesWaiting) refers to port.o(i.vPortEnterCritical) for vPortEnterCritical
    queue.o(i.uxQueueMessagesWaiting) refers to port.o(i.vPortExitCritical) for vPortExitCritical
    queue.o(i.vQueueDelete) refers to heap_2.o(i.vPortFree) for vPortFree
    queue.o(i.xQueueCreate) refers to heap_2.o(i.pvPortMalloc) for pvPortMalloc
    queue.o(i.xQueueCreate) refers to list.o(i.vListInitialise) for vListInitialise
    queue.o(i.xQueueCreate) refers to heap_2.o(i.vPortFree) for vPortFree
    queue.o(i.xQueueCreateCountingSemaphore) refers to queue.o(i.xQueueCreate) for xQueueCreate
    queue.o(i.xQueueCreateMutex) refers to heap_2.o(i.pvPortMalloc) for pvPortMalloc
    queue.o(i.xQueueCreateMutex) refers to list.o(i.vListInitialise) for vListInitialise
    queue.o(i.xQueueCreateMutex) refers to queue.o(i.xQueueGenericSend) for xQueueGenericSend
    queue.o(i.xQueueGenericReceive) refers to port.o(i.vPortEnterCritical) for vPortEnterCritical
    queue.o(i.xQueueGenericReceive) refers to queue.o(i.prvCopyDataFromQueue) for prvCopyDataFromQueue
    queue.o(i.xQueueGenericReceive) refers to tasks.o(i.xTaskRemoveFromEventList) for xTaskRemoveFromEventList
    queue.o(i.xQueueGenericReceive) refers to port.o(i.vPortYieldFromISR) for vPortYieldFromISR
    queue.o(i.xQueueGenericReceive) refers to port.o(i.vPortExitCritical) for vPortExitCritical
    queue.o(i.xQueueGenericReceive) refers to tasks.o(i.xTaskGetCurrentTaskHandle) for xTaskGetCurrentTaskHandle
    queue.o(i.xQueueGenericReceive) refers to tasks.o(i.vTaskSetTimeOutState) for vTaskSetTimeOutState
    queue.o(i.xQueueGenericReceive) refers to tasks.o(i.vTaskSuspendAll) for vTaskSuspendAll
    queue.o(i.xQueueGenericReceive) refers to tasks.o(i.xTaskCheckForTimeOut) for xTaskCheckForTimeOut
    queue.o(i.xQueueGenericReceive) refers to queue.o(i.prvUnlockQueue) for prvUnlockQueue
    queue.o(i.xQueueGenericReceive) refers to tasks.o(i.xTaskResumeAll) for xTaskResumeAll
    queue.o(i.xQueueGenericReceive) refers to tasks.o(i.vTaskPriorityInherit) for vTaskPriorityInherit
    queue.o(i.xQueueGenericReceive) refers to tasks.o(i.vTaskPlaceOnEventList) for vTaskPlaceOnEventList
    queue.o(i.xQueueGenericSend) refers to port.o(i.vPortEnterCritical) for vPortEnterCritical
    queue.o(i.xQueueGenericSend) refers to queue.o(i.prvCopyDataToQueue) for prvCopyDataToQueue
    queue.o(i.xQueueGenericSend) refers to tasks.o(i.xTaskRemoveFromEventList) for xTaskRemoveFromEventList
    queue.o(i.xQueueGenericSend) refers to port.o(i.vPortYieldFromISR) for vPortYieldFromISR
    queue.o(i.xQueueGenericSend) refers to port.o(i.vPortExitCritical) for vPortExitCritical
    queue.o(i.xQueueGenericSend) refers to tasks.o(i.vTaskSetTimeOutState) for vTaskSetTimeOutState
    queue.o(i.xQueueGenericSend) refers to tasks.o(i.vTaskSuspendAll) for vTaskSuspendAll
    queue.o(i.xQueueGenericSend) refers to tasks.o(i.xTaskCheckForTimeOut) for xTaskCheckForTimeOut
    queue.o(i.xQueueGenericSend) refers to queue.o(i.prvUnlockQueue) for prvUnlockQueue
    queue.o(i.xQueueGenericSend) refers to tasks.o(i.xTaskResumeAll) for xTaskResumeAll
    queue.o(i.xQueueGenericSend) refers to tasks.o(i.vTaskPlaceOnEventList) for vTaskPlaceOnEventList
    queue.o(i.xQueueGenericSendFromISR) refers to port.o(.emb_text) for vPortSetInterruptMask
    queue.o(i.xQueueGenericSendFromISR) refers to queue.o(i.prvCopyDataToQueue) for prvCopyDataToQueue
    queue.o(i.xQueueGenericSendFromISR) refers to tasks.o(i.xTaskRemoveFromEventList) for xTaskRemoveFromEventList
    queue.o(i.xQueueReceiveFromISR) refers to port.o(.emb_text) for vPortSetInterruptMask
    queue.o(i.xQueueReceiveFromISR) refers to queue.o(i.prvCopyDataFromQueue) for prvCopyDataFromQueue
    queue.o(i.xQueueReceiveFromISR) refers to tasks.o(i.xTaskRemoveFromEventList) for xTaskRemoveFromEventList
    entry.o(.ARM.Collect$$$$00000000) refers (Special) to entry7b.o(.ARM.Collect$$$$00000008) for _main_clock
    entry.o(.ARM.Collect$$$$00000000) refers (Special) to entry8.o(.ARM.Collect$$$$00000009) for _main_init
    entry.o(.ARM.Collect$$$$00000000) refers (Special) to entry5.o(.ARM.Collect$$$$00000004) for _main_scatterload
    entry.o(.ARM.Collect$$$$00000000) refers (Special) to entry2.o(.ARM.Collect$$$$00000001) for _main_stk
    printfb.o(i.__0fprintf$bare) refers to printfb.o(i._printf_core) for _printf_core
    printfb.o(i.__0fprintf$bare) refers to fputc.o(i.fputc) for fputc
    printfb.o(i.__0printf$bare) refers to printfb.o(i._printf_core) for _printf_core
    printfb.o(i.__0printf$bare) refers to fputc.o(i.fputc) for fputc
    printfb.o(i.__0printf$bare) refers to stdout.o(.data) for __stdout
    printfb.o(i.__0snprintf$bare) refers to printfb.o(i._printf_core) for _printf_core
    printfb.o(i.__0snprintf$bare) refers to printfb.o(i._snputc) for _snputc
    printfb.o(i.__0sprintf$bare) refers to printfb.o(i._printf_core) for _printf_core
    printfb.o(i.__0sprintf$bare) refers to printfb.o(i._sputc) for _sputc
    printfb.o(i.__0vfprintf$bare) refers to printfb.o(i._printf_core) for _printf_core
    printfb.o(i.__0vfprintf$bare) refers to fputc.o(i.fputc) for fputc
    printfb.o(i.__0vprintf$bare) refers to printfb.o(i._printf_core) for _printf_core
    printfb.o(i.__0vprintf$bare) refers to fputc.o(i.fputc) for fputc
    printfb.o(i.__0vprintf$bare) refers to stdout.o(.data) for __stdout
    printfb.o(i.__0vsnprintf$bare) refers to printfb.o(i._printf_core) for _printf_core
    printfb.o(i.__0vsnprintf$bare) refers to printfb.o(i._snputc) for _snputc
    printfb.o(i.__0vsprintf$bare) refers to printfb.o(i._printf_core) for _printf_core
    printfb.o(i.__0vsprintf$bare) refers to printfb.o(i._sputc) for _sputc
    printf0.o(i.__0fprintf$0) refers to printf0.o(i._printf_core) for _printf_core
    printf0.o(i.__0fprintf$0) refers to fputc.o(i.fputc) for fputc
    printf0.o(i.__0printf$0) refers to printf0.o(i._printf_core) for _printf_core
    printf0.o(i.__0printf$0) refers to fputc.o(i.fputc) for fputc
    printf0.o(i.__0printf$0) refers to stdout.o(.data) for __stdout
    printf0.o(i.__0snprintf$0) refers to printf0.o(i._printf_core) for _printf_core
    printf0.o(i.__0snprintf$0) refers to printf0.o(i._snputc) for _snputc
    printf0.o(i.__0sprintf$0) refers to printf0.o(i._printf_core) for _printf_core
    printf0.o(i.__0sprintf$0) refers to printf0.o(i._sputc) for _sputc
    printf0.o(i.__0vfprintf$0) refers to printf0.o(i._printf_core) for _printf_core
    printf0.o(i.__0vfprintf$0) refers to fputc.o(i.fputc) for fputc
    printf0.o(i.__0vprintf$0) refers to printf0.o(i._printf_core) for _printf_core
    printf0.o(i.__0vprintf$0) refers to fputc.o(i.fputc) for fputc
    printf0.o(i.__0vprintf$0) refers to stdout.o(.data) for __stdout
    printf0.o(i.__0vsnprintf$0) refers to printf0.o(i._printf_core) for _printf_core
    printf0.o(i.__0vsnprintf$0) refers to printf0.o(i._snputc) for _snputc
    printf0.o(i.__0vsprintf$0) refers to printf0.o(i._printf_core) for _printf_core
    printf0.o(i.__0vsprintf$0) refers to printf0.o(i._sputc) for _sputc
    printf1.o(i.__0fprintf$1) refers to printf1.o(i._printf_core) for _printf_core
    printf1.o(i.__0fprintf$1) refers to fputc.o(i.fputc) for fputc
    printf1.o(i.__0printf$1) refers to printf1.o(i._printf_core) for _printf_core
    printf1.o(i.__0printf$1) refers to fputc.o(i.fputc) for fputc
    printf1.o(i.__0printf$1) refers to stdout.o(.data) for __stdout
    printf1.o(i.__0snprintf$1) refers to printf1.o(i._printf_core) for _printf_core
    printf1.o(i.__0snprintf$1) refers to printf1.o(i._snputc) for _snputc
    printf1.o(i.__0sprintf$1) refers to printf1.o(i._printf_core) for _printf_core
    printf1.o(i.__0sprintf$1) refers to printf1.o(i._sputc) for _sputc
    printf1.o(i.__0vfprintf$1) refers to printf1.o(i._printf_core) for _printf_core
    printf1.o(i.__0vfprintf$1) refers to fputc.o(i.fputc) for fputc
    printf1.o(i.__0vprintf$1) refers to printf1.o(i._printf_core) for _printf_core
    printf1.o(i.__0vprintf$1) refers to fputc.o(i.fputc) for fputc
    printf1.o(i.__0vprintf$1) refers to stdout.o(.data) for __stdout
    printf1.o(i.__0vsnprintf$1) refers to printf1.o(i._printf_core) for _printf_core
    printf1.o(i.__0vsnprintf$1) refers to printf1.o(i._snputc) for _snputc
    printf1.o(i.__0vsprintf$1) refers to printf1.o(i._printf_core) for _printf_core
    printf1.o(i.__0vsprintf$1) refers to printf1.o(i._sputc) for _sputc
    printf1.o(i._printf_core) refers to uidiv.o(.text) for __aeabi_uidivmod
    printf2.o(i.__0fprintf$2) refers to printf2.o(i._printf_core) for _printf_core
    printf2.o(i.__0fprintf$2) refers to fputc.o(i.fputc) for fputc
    printf2.o(i.__0printf$2) refers to printf2.o(i._printf_core) for _printf_core
    printf2.o(i.__0printf$2) refers to fputc.o(i.fputc) for fputc
    printf2.o(i.__0printf$2) refers to stdout.o(.data) for __stdout
    printf2.o(i.__0snprintf$2) refers to printf2.o(i._printf_core) for _printf_core
    printf2.o(i.__0snprintf$2) refers to printf2.o(i._snputc) for _snputc
    printf2.o(i.__0sprintf$2) refers to printf2.o(i._printf_core) for _printf_core
    printf2.o(i.__0sprintf$2) refers to printf2.o(i._sputc) for _sputc
    printf2.o(i.__0vfprintf$2) refers to printf2.o(i._printf_core) for _printf_core
    printf2.o(i.__0vfprintf$2) refers to fputc.o(i.fputc) for fputc
    printf2.o(i.__0vprintf$2) refers to printf2.o(i._printf_core) for _printf_core
    printf2.o(i.__0vprintf$2) refers to fputc.o(i.fputc) for fputc
    printf2.o(i.__0vprintf$2) refers to stdout.o(.data) for __stdout
    printf2.o(i.__0vsnprintf$2) refers to printf2.o(i._printf_core) for _printf_core
    printf2.o(i.__0vsnprintf$2) refers to printf2.o(i._snputc) for _snputc
    printf2.o(i.__0vsprintf$2) refers to printf2.o(i._printf_core) for _printf_core
    printf2.o(i.__0vsprintf$2) refers to printf2.o(i._sputc) for _sputc
    printf3.o(i.__0fprintf$3) refers to printf3.o(i._printf_core) for _printf_core
    printf3.o(i.__0fprintf$3) refers to fputc.o(i.fputc) for fputc
    printf3.o(i.__0printf$3) refers to printf3.o(i._printf_core) for _printf_core
    printf3.o(i.__0printf$3) refers to fputc.o(i.fputc) for fputc
    printf3.o(i.__0printf$3) refers to stdout.o(.data) for __stdout
    printf3.o(i.__0snprintf$3) refers to printf3.o(i._printf_core) for _printf_core
    printf3.o(i.__0snprintf$3) refers to printf3.o(i._snputc) for _snputc
    printf3.o(i.__0sprintf$3) refers to printf3.o(i._printf_core) for _printf_core
    printf3.o(i.__0sprintf$3) refers to printf3.o(i._sputc) for _sputc
    printf3.o(i.__0vfprintf$3) refers to printf3.o(i._printf_core) for _printf_core
    printf3.o(i.__0vfprintf$3) refers to fputc.o(i.fputc) for fputc
    printf3.o(i.__0vprintf$3) refers to printf3.o(i._printf_core) for _printf_core
    printf3.o(i.__0vprintf$3) refers to fputc.o(i.fputc) for fputc
    printf3.o(i.__0vprintf$3) refers to stdout.o(.data) for __stdout
    printf3.o(i.__0vsnprintf$3) refers to printf3.o(i._printf_core) for _printf_core
    printf3.o(i.__0vsnprintf$3) refers to printf3.o(i._snputc) for _snputc
    printf3.o(i.__0vsprintf$3) refers to printf3.o(i._printf_core) for _printf_core
    printf3.o(i.__0vsprintf$3) refers to printf3.o(i._sputc) for _sputc
    printf3.o(i._printf_core) refers to uidiv.o(.text) for __aeabi_uidivmod
    printf4.o(i.__0fprintf$4) refers to printf4.o(i._printf_core) for _printf_core
    printf4.o(i.__0fprintf$4) refers to fputc.o(i.fputc) for fputc
    printf4.o(i.__0printf$4) refers to printf4.o(i._printf_core) for _printf_core
    printf4.o(i.__0printf$4) refers to fputc.o(i.fputc) for fputc
    printf4.o(i.__0printf$4) refers to stdout.o(.data) for __stdout
    printf4.o(i.__0snprintf$4) refers to printf4.o(i._printf_core) for _printf_core
    printf4.o(i.__0snprintf$4) refers to printf4.o(i._snputc) for _snputc
    printf4.o(i.__0sprintf$4) refers to printf4.o(i._printf_core) for _printf_core
    printf4.o(i.__0sprintf$4) refers to printf4.o(i._sputc) for _sputc
    printf4.o(i.__0vfprintf$4) refers to printf4.o(i._printf_core) for _printf_core
    printf4.o(i.__0vfprintf$4) refers to fputc.o(i.fputc) for fputc
    printf4.o(i.__0vprintf$4) refers to printf4.o(i._printf_core) for _printf_core
    printf4.o(i.__0vprintf$4) refers to fputc.o(i.fputc) for fputc
    printf4.o(i.__0vprintf$4) refers to stdout.o(.data) for __stdout
    printf4.o(i.__0vsnprintf$4) refers to printf4.o(i._printf_core) for _printf_core
    printf4.o(i.__0vsnprintf$4) refers to printf4.o(i._snputc) for _snputc
    printf4.o(i.__0vsprintf$4) refers to printf4.o(i._printf_core) for _printf_core
    printf4.o(i.__0vsprintf$4) refers to printf4.o(i._sputc) for _sputc
    printf4.o(i._printf_core) refers to uldiv.o(.text) for __aeabi_uldivmod
    printf5.o(i.__0fprintf$5) refers to printf5.o(i._printf_core) for _printf_core
    printf5.o(i.__0fprintf$5) refers to fputc.o(i.fputc) for fputc
    printf5.o(i.__0printf$5) refers to printf5.o(i._printf_core) for _printf_core
    printf5.o(i.__0printf$5) refers to fputc.o(i.fputc) for fputc
    printf5.o(i.__0printf$5) refers to stdout.o(.data) for __stdout
    printf5.o(i.__0snprintf$5) refers to printf5.o(i._printf_core) for _printf_core
    printf5.o(i.__0snprintf$5) refers to printf5.o(i._snputc) for _snputc
    printf5.o(i.__0sprintf$5) refers to printf5.o(i._printf_core) for _printf_core
    printf5.o(i.__0sprintf$5) refers to printf5.o(i._sputc) for _sputc
    printf5.o(i.__0vfprintf$5) refers to printf5.o(i._printf_core) for _printf_core
    printf5.o(i.__0vfprintf$5) refers to fputc.o(i.fputc) for fputc
    printf5.o(i.__0vprintf$5) refers to printf5.o(i._printf_core) for _printf_core
    printf5.o(i.__0vprintf$5) refers to fputc.o(i.fputc) for fputc
    printf5.o(i.__0vprintf$5) refers to stdout.o(.data) for __stdout
    printf5.o(i.__0vsnprintf$5) refers to printf5.o(i._printf_core) for _printf_core
    printf5.o(i.__0vsnprintf$5) refers to printf5.o(i._snputc) for _snputc
    printf5.o(i.__0vsprintf$5) refers to printf5.o(i._printf_core) for _printf_core
    printf5.o(i.__0vsprintf$5) refers to printf5.o(i._sputc) for _sputc
    printf5.o(i._printf_core) refers to uldiv.o(.text) for __aeabi_uldivmod
    printf6.o(i.__0fprintf$6) refers to printf6.o(i._printf_core) for _printf_core
    printf6.o(i.__0fprintf$6) refers to fputc.o(i.fputc) for fputc
    printf6.o(i.__0printf$6) refers to printf6.o(i._printf_core) for _printf_core
    printf6.o(i.__0printf$6) refers to fputc.o(i.fputc) for fputc
    printf6.o(i.__0printf$6) refers to stdout.o(.data) for __stdout
    printf6.o(i.__0snprintf$6) refers to printf6.o(i._printf_core) for _printf_core
    printf6.o(i.__0snprintf$6) refers to printf6.o(i._snputc) for _snputc
    printf6.o(i.__0sprintf$6) refers to printf6.o(i._printf_core) for _printf_core
    printf6.o(i.__0sprintf$6) refers to printf6.o(i._sputc) for _sputc
    printf6.o(i.__0vfprintf$6) refers to printf6.o(i._printf_core) for _printf_core
    printf6.o(i.__0vfprintf$6) refers to fputc.o(i.fputc) for fputc
    printf6.o(i.__0vprintf$6) refers to printf6.o(i._printf_core) for _printf_core
    printf6.o(i.__0vprintf$6) refers to fputc.o(i.fputc) for fputc
    printf6.o(i.__0vprintf$6) refers to stdout.o(.data) for __stdout
    printf6.o(i.__0vsnprintf$6) refers to printf6.o(i._printf_core) for _printf_core
    printf6.o(i.__0vsnprintf$6) refers to printf6.o(i._snputc) for _snputc
    printf6.o(i.__0vsprintf$6) refers to printf6.o(i._printf_core) for _printf_core
    printf6.o(i.__0vsprintf$6) refers to printf6.o(i._sputc) for _sputc
    printf6.o(i._printf_core) refers to printf6.o(i._printf_pre_padding) for _printf_pre_padding
    printf6.o(i._printf_core) refers to uidiv.o(.text) for __aeabi_uidivmod
    printf6.o(i._printf_core) refers to printf6.o(i._printf_post_padding) for _printf_post_padding
    printf7.o(i.__0fprintf$7) refers to printf7.o(i._printf_core) for _printf_core
    printf7.o(i.__0fprintf$7) refers to fputc.o(i.fputc) for fputc
    printf7.o(i.__0printf$7) refers to printf7.o(i._printf_core) for _printf_core
    printf7.o(i.__0printf$7) refers to fputc.o(i.fputc) for fputc
    printf7.o(i.__0printf$7) refers to stdout.o(.data) for __stdout
    printf7.o(i.__0snprintf$7) refers to printf7.o(i._printf_core) for _printf_core
    printf7.o(i.__0snprintf$7) refers to printf7.o(i._snputc) for _snputc
    printf7.o(i.__0sprintf$7) refers to printf7.o(i._printf_core) for _printf_core
    printf7.o(i.__0sprintf$7) refers to printf7.o(i._sputc) for _sputc
    printf7.o(i.__0vfprintf$7) refers to printf7.o(i._printf_core) for _printf_core
    printf7.o(i.__0vfprintf$7) refers to fputc.o(i.fputc) for fputc
    printf7.o(i.__0vprintf$7) refers to printf7.o(i._printf_core) for _printf_core
    printf7.o(i.__0vprintf$7) refers to fputc.o(i.fputc) for fputc
    printf7.o(i.__0vprintf$7) refers to stdout.o(.data) for __stdout
    printf7.o(i.__0vsnprintf$7) refers to printf7.o(i._printf_core) for _printf_core
    printf7.o(i.__0vsnprintf$7) refers to printf7.o(i._snputc) for _snputc
    printf7.o(i.__0vsprintf$7) refers to printf7.o(i._printf_core) for _printf_core
    printf7.o(i.__0vsprintf$7) refers to printf7.o(i._sputc) for _sputc
    printf7.o(i._printf_core) refers to printf7.o(i._printf_pre_padding) for _printf_pre_padding
    printf7.o(i._printf_core) refers to uldiv.o(.text) for __aeabi_uldivmod
    printf7.o(i._printf_core) refers to printf7.o(i._printf_post_padding) for _printf_post_padding
    printf8.o(i.__0fprintf$8) refers to printf8.o(i._printf_core) for _printf_core
    printf8.o(i.__0fprintf$8) refers to fputc.o(i.fputc) for fputc
    printf8.o(i.__0printf$8) refers to printf8.o(i._printf_core) for _printf_core
    printf8.o(i.__0printf$8) refers to fputc.o(i.fputc) for fputc
    printf8.o(i.__0printf$8) refers to stdout.o(.data) for __stdout
    printf8.o(i.__0snprintf$8) refers to printf8.o(i._printf_core) for _printf_core
    printf8.o(i.__0snprintf$8) refers to printf8.o(i._snputc) for _snputc
    printf8.o(i.__0sprintf$8) refers to printf8.o(i._printf_core) for _printf_core
    printf8.o(i.__0sprintf$8) refers to printf8.o(i._sputc) for _sputc
    printf8.o(i.__0vfprintf$8) refers to printf8.o(i._printf_core) for _printf_core
    printf8.o(i.__0vfprintf$8) refers to fputc.o(i.fputc) for fputc
    printf8.o(i.__0vprintf$8) refers to printf8.o(i._printf_core) for _printf_core
    printf8.o(i.__0vprintf$8) refers to fputc.o(i.fputc) for fputc
    printf8.o(i.__0vprintf$8) refers to stdout.o(.data) for __stdout
    printf8.o(i.__0vsnprintf$8) refers to printf8.o(i._printf_core) for _printf_core
    printf8.o(i.__0vsnprintf$8) refers to printf8.o(i._snputc) for _snputc
    printf8.o(i.__0vsprintf$8) refers to printf8.o(i._printf_core) for _printf_core
    printf8.o(i.__0vsprintf$8) refers to printf8.o(i._sputc) for _sputc
    printf8.o(i._printf_core) refers to printf8.o(i._printf_pre_padding) for _printf_pre_padding
    printf8.o(i._printf_core) refers to uldiv.o(.text) for __aeabi_uldivmod
    printf8.o(i._printf_core) refers to printf8.o(i._printf_post_padding) for _printf_post_padding
    printfa.o(i.__0fprintf) refers (Special) to iusefp.o(.text) for __I$use$fp
    printfa.o(i.__0fprintf) refers to printfa.o(i._printf_core) for _printf_core
    printfa.o(i.__0fprintf) refers to fputc.o(i.fputc) for fputc
    printfa.o(i.__0printf) refers (Special) to iusefp.o(.text) for __I$use$fp
    printfa.o(i.__0printf) refers to printfa.o(i._printf_core) for _printf_core
    printfa.o(i.__0printf) refers to fputc.o(i.fputc) for fputc
    printfa.o(i.__0printf) refers to stdout.o(.data) for __stdout
    printfa.o(i.__0snprintf) refers (Special) to iusefp.o(.text) for __I$use$fp
    printfa.o(i.__0snprintf) refers to printfa.o(i._printf_core) for _printf_core
    printfa.o(i.__0snprintf) refers to printfa.o(i._snputc) for _snputc
    printfa.o(i.__0sprintf) refers (Special) to iusefp.o(.text) for __I$use$fp
    printfa.o(i.__0sprintf) refers to printfa.o(i._printf_core) for _printf_core
    printfa.o(i.__0sprintf) refers to printfa.o(i._sputc) for _sputc
    printfa.o(i.__0vfprintf) refers (Special) to iusefp.o(.text) for __I$use$fp
    printfa.o(i.__0vfprintf) refers to printfa.o(i._printf_core) for _printf_core
    printfa.o(i.__0vfprintf) refers to fputc.o(i.fputc) for fputc
    printfa.o(i.__0vprintf) refers (Special) to iusefp.o(.text) for __I$use$fp
    printfa.o(i.__0vprintf) refers to printfa.o(i._printf_core) for _printf_core
    printfa.o(i.__0vprintf) refers to fputc.o(i.fputc) for fputc
    printfa.o(i.__0vprintf) refers to stdout.o(.data) for __stdout
    printfa.o(i.__0vsnprintf) refers (Special) to iusefp.o(.text) for __I$use$fp
    printfa.o(i.__0vsnprintf) refers to printfa.o(i._printf_core) for _printf_core
    printfa.o(i.__0vsnprintf) refers to printfa.o(i._snputc) for _snputc
    printfa.o(i.__0vsprintf) refers (Special) to iusefp.o(.text) for __I$use$fp
    printfa.o(i.__0vsprintf) refers to printfa.o(i._printf_core) for _printf_core
    printfa.o(i.__0vsprintf) refers to printfa.o(i._sputc) for _sputc
    printfa.o(i._fp_digits) refers (Special) to iusefp.o(.text) for __I$use$fp
    printfa.o(i._fp_digits) refers to dmul.o(.text) for __aeabi_dmul
    printfa.o(i._fp_digits) refers to ddiv.o(.text) for __aeabi_ddiv
    printfa.o(i._fp_digits) refers to cdrcmple.o(.text) for __aeabi_cdrcmple
    printfa.o(i._fp_digits) refers to dadd.o(.text) for __aeabi_dadd
    printfa.o(i._fp_digits) refers to dfixul.o(.text) for __aeabi_d2ulz
    printfa.o(i._fp_digits) refers to uldiv.o(.text) for __aeabi_uldivmod
    printfa.o(i._printf_core) refers (Special) to iusefp.o(.text) for __I$use$fp
    printfa.o(i._printf_core) refers to printfa.o(i._printf_pre_padding) for _printf_pre_padding
    printfa.o(i._printf_core) refers to uldiv.o(.text) for __aeabi_uldivmod
    printfa.o(i._printf_core) refers to printfa.o(i._printf_post_padding) for _printf_post_padding
    printfa.o(i._printf_core) refers to printfa.o(i._fp_digits) for _fp_digits
    printfa.o(i._printf_core) refers to uidiv.o(.text) for __aeabi_uidivmod
    printfa.o(i._printf_post_padding) refers (Special) to iusefp.o(.text) for __I$use$fp
    printfa.o(i._printf_pre_padding) refers (Special) to iusefp.o(.text) for __I$use$fp
    printfa.o(i._snputc) refers (Special) to iusefp.o(.text) for __I$use$fp
    printfa.o(i._sputc) refers (Special) to iusefp.o(.text) for __I$use$fp
    dflti.o(.text) refers (Special) to iusefp.o(.text) for __I$use$fp
    dflti.o(.text) refers to depilogue.o(.text) for _double_epilogue
    dfltui.o(.text) refers (Special) to iusefp.o(.text) for __I$use$fp
    dfltui.o(.text) refers to depilogue.o(.text) for _double_epilogue
    cdcmple.o(.text) refers (Special) to iusefp.o(.text) for __I$use$fp
    cdrcmple.o(.text) refers (Special) to iusefp.o(.text) for __I$use$fp
    entry2.o(.ARM.Collect$$$$00000001) refers to entry2.o(.ARM.Collect$$$$00002712) for __lit__00000000
    entry2.o(.ARM.Collect$$$$00002712) refers to startup_stm32f4xx.o(STACK) for __initial_sp
    entry2.o(__vectab_stack_and_reset_area) refers to startup_stm32f4xx.o(STACK) for __initial_sp
    entry2.o(__vectab_stack_and_reset_area) refers to entry.o(.ARM.Collect$$$$00000000) for __main
    entry5.o(.ARM.Collect$$$$00000004) refers to init.o(.text) for __scatterload
    entry8.o(.ARM.Collect$$$$00000009) refers to main.o(i.main) for main
    fputc.o(i.fputc) refers (Special) to iusesemip.o(.text) for __I$use$semihosting$fputc
    fputc.o(i.fputc) refers (Special) to semi.o(.text) for __semihosting_library_function
    uldiv.o(.text) refers to llushr.o(.text) for __aeabi_llsr
    uldiv.o(.text) refers to llshl.o(.text) for __aeabi_llsl
    depilogue.o(.text) refers to llshl.o(.text) for __aeabi_llsl
    depilogue.o(.text) refers to llushr.o(.text) for __aeabi_llsr
    dadd.o(.text) refers to llshl.o(.text) for __aeabi_llsl
    dadd.o(.text) refers to llsshr.o(.text) for __aeabi_lasr
    dadd.o(.text) refers to depilogue.o(.text) for _double_epilogue
    dmul.o(.text) refers to depilogue.o(.text) for _double_epilogue
    ddiv.o(.text) refers to depilogue.o(.text) for _double_round
    dfixul.o(.text) refers to llushr.o(.text) for __aeabi_llsr
    dfixul.o(.text) refers to llshl.o(.text) for __aeabi_llsl
    init.o(.text) refers to entry5.o(.ARM.Collect$$$$00000004) for __main_after_scatterload


==============================================================================

Removing Unused input sections from the image.

    Removing system_stm32f4xx.o(.emb_text), (8 bytes).
    Removing system_stm32f4xx.o(i.SystemCoreClockUpdate), (120 bytes).
    Removing system_stm32f4xx.o(.data), (20 bytes).
    Removing startup_stm32f4xx.o(HEAP), (512 bytes).
    Removing main.o(.emb_text), (8 bytes).
    Removing netconf.o(.emb_text), (8 bytes).
    Removing stm32f4x7_eth_bsp.o(.emb_text), (8 bytes).
    Removing stm32f4xx_it.o(.emb_text), (8 bytes).
    Removing stm32f4xx_it.o(i.PendSV_Handler), (2 bytes).
    Removing stm32f4xx_it.o(i.SVC_Handler), (2 bytes).
    Removing serial_debug.o(.emb_text), (8 bytes).
    Removing api_lib.o(i.netconn_disconnect), (40 bytes).
    Removing api_lib.o(i.netconn_getaddr), (52 bytes).
    Removing api_lib.o(i.netconn_sendto), (16 bytes).
    Removing api_msg.o(i.do_disconnect), (34 bytes).
    Removing api_msg.o(i.do_getaddr), (114 bytes).
    Removing err.o(i.lwip_strerr), (16 bytes).
    Removing err.o(.conststring), (251 bytes).
    Removing err.o(.data), (60 bytes).
    Removing netbuf.o(i.netbuf_alloc), (42 bytes).
    Removing netbuf.o(i.netbuf_chain), (38 bytes).
    Removing netbuf.o(i.netbuf_first), (10 bytes).
    Removing netbuf.o(i.netbuf_free), (22 bytes).
    Removing netbuf.o(i.netbuf_new), (24 bytes).
    Removing netbuf.o(i.netbuf_ref), (64 bytes).
    Removing tcpip.o(i.mem_free_callback), (16 bytes).
    Removing tcpip.o(i.pbuf_free_callback), (16 bytes).
    Removing tcpip.o(i.pbuf_free_int), (4 bytes).
    Removing tcpip.o(i.tcpip_callback_with_block), (92 bytes).
    Removing tcpip.o(i.tcpip_timeout), (64 bytes).
    Removing tcpip.o(i.tcpip_untimeout), (56 bytes).
    Removing dhcp.o(i.dhcp_free_reply), (32 bytes).
    Removing dhcp.o(i.dhcp_get_option_long), (22 bytes).
    Removing dhcp.o(i.dhcp_get_option_ptr), (130 bytes).
    Removing dhcp.o(i.dhcp_handle_ack), (220 bytes).
    Removing dhcp.o(i.dhcp_inform), (156 bytes).
    Removing dhcp.o(i.dhcp_network_changed), (70 bytes).
    Removing dhcp.o(i.dhcp_recv), (300 bytes).
    Removing dhcp.o(i.dhcp_start), (156 bytes).
    Removing dhcp.o(i.dhcp_stop), (46 bytes).
    Removing dhcp.o(i.dhcp_unfold_reply), (106 bytes).
    Removing mem.o(i.mem_calloc), (26 bytes).
    Removing memp.o(.conststring), (127 bytes).
    Removing memp.o(.data), (48 bytes).
    Removing netif.o(i.netif_find), (64 bytes).
    Removing netif.o(i.netif_remove), (56 bytes).
    Removing pbuf.o(i.pbuf_coalesce), (42 bytes).
    Removing pbuf.o(i.pbuf_copy_partial), (104 bytes).
    Removing pbuf.o(i.pbuf_dechain), (38 bytes).
    Removing pbuf.o(i.pbuf_take), (78 bytes).
    Removing sys.o(i.sswt_handler), (12 bytes).
    Removing sys.o(i.sys_msleep), (28 bytes).
    Removing sys.o(i.sys_sem_wait), (86 bytes).
    Removing sys.o(i.sys_sem_wait_timeout), (64 bytes).
    Removing tcp.o(i.tcp_debug_state_str), (12 bytes).
    Removing tcp.o(i.tcp_setprio), (4 bytes).
    Removing udp.o(i.udp_disconnect), (24 bytes).
    Removing autoip.o(i.autoip_network_changed), (34 bytes).
    Removing autoip.o(i.autoip_stop), (16 bytes).
    Removing inet.o(i.inet_addr), (20 bytes).
    Removing inet.o(i.inet_aton), (238 bytes).
    Removing inet.o(i.inet_ntoa), (88 bytes).
    Removing inet.o(.bss), (16 bytes).
    Removing inet_chksum.o(i.inet_chksum_pseudo), (136 bytes).
    Removing etharp.o(i.etharp_find_addr), (48 bytes).
    Removing etharp.o(i.etharp_ip_input), (44 bytes).
    Removing ethernetif.o(.emb_text), (8 bytes).
    Removing sys_arch.o(i.sys_arch_protect), (10 bytes).
    Removing sys_arch.o(i.sys_arch_unprotect), (4 bytes).
    Removing sys_arch.o(i.sys_assert), (6 bytes).
    Removing stm32f4xx_usart.o(.emb_text), (8 bytes).
    Removing stm32f4xx_usart.o(i.USART_ClearFlag), (6 bytes).
    Removing stm32f4xx_usart.o(i.USART_ClearITPendingBit), (12 bytes).
    Removing stm32f4xx_usart.o(i.USART_ClockInit), (28 bytes).
    Removing stm32f4xx_usart.o(i.USART_ClockStructInit), (12 bytes).
    Removing stm32f4xx_usart.o(i.USART_Cmd), (20 bytes).
    Removing stm32f4xx_usart.o(i.USART_DMACmd), (16 bytes).
    Removing stm32f4xx_usart.o(i.USART_DeInit), (140 bytes).
    Removing stm32f4xx_usart.o(i.USART_GetFlagStatus), (14 bytes).
    Removing stm32f4xx_usart.o(i.USART_GetITStatus), (62 bytes).
    Removing stm32f4xx_usart.o(i.USART_HalfDuplexCmd), (20 bytes).
    Removing stm32f4xx_usart.o(i.USART_ITConfig), (48 bytes).
    Removing stm32f4xx_usart.o(i.USART_Init), (184 bytes).
    Removing stm32f4xx_usart.o(i.USART_IrDACmd), (20 bytes).
    Removing stm32f4xx_usart.o(i.USART_IrDAConfig), (16 bytes).
    Removing stm32f4xx_usart.o(i.USART_LINBreakDetectLengthConfig), (16 bytes).
    Removing stm32f4xx_usart.o(i.USART_LINCmd), (20 bytes).
    Removing stm32f4xx_usart.o(i.USART_OneBitMethodCmd), (20 bytes).
    Removing stm32f4xx_usart.o(i.USART_OverSampling8Cmd), (20 bytes).
    Removing stm32f4xx_usart.o(i.USART_ReceiveData), (8 bytes).
    Removing stm32f4xx_usart.o(i.USART_ReceiverWakeUpCmd), (20 bytes).
    Removing stm32f4xx_usart.o(i.USART_SendBreak), (10 bytes).
    Removing stm32f4xx_usart.o(i.USART_SendData), (8 bytes).
    Removing stm32f4xx_usart.o(i.USART_SetAddress), (16 bytes).
    Removing stm32f4xx_usart.o(i.USART_SetGuardTime), (16 bytes).
    Removing stm32f4xx_usart.o(i.USART_SetPrescaler), (16 bytes).
    Removing stm32f4xx_usart.o(i.USART_SmartCardCmd), (20 bytes).
    Removing stm32f4xx_usart.o(i.USART_SmartCardNACKCmd), (20 bytes).
    Removing stm32f4xx_usart.o(i.USART_StructInit), (22 bytes).
    Removing stm32f4xx_usart.o(i.USART_WakeUpConfig), (16 bytes).
    Removing misc.o(.emb_text), (8 bytes).
    Removing misc.o(i.NVIC_SetVectorTable), (20 bytes).
    Removing misc.o(i.NVIC_SystemLPConfig), (24 bytes).
    Removing misc.o(i.SysTick_CLKSourceConfig), (24 bytes).
    Removing stm32f4xx_adc.o(.emb_text), (8 bytes).
    Removing stm32f4xx_adc.o(i.ADC_AnalogWatchdogCmd), (16 bytes).
    Removing stm32f4xx_adc.o(i.ADC_AnalogWatchdogSingleChannelConfig), (12 bytes).
    Removing stm32f4xx_adc.o(i.ADC_AnalogWatchdogThresholdsConfig), (6 bytes).
    Removing stm32f4xx_adc.o(i.ADC_AutoInjectedConvCmd), (20 bytes).
    Removing stm32f4xx_adc.o(i.ADC_ClearFlag), (6 bytes).
    Removing stm32f4xx_adc.o(i.ADC_ClearITPendingBit), (8 bytes).
    Removing stm32f4xx_adc.o(i.ADC_Cmd), (20 bytes).
    Removing stm32f4xx_adc.o(i.ADC_CommonInit), (48 bytes).
    Removing stm32f4xx_adc.o(i.ADC_CommonStructInit), (12 bytes).
    Removing stm32f4xx_adc.o(i.ADC_ContinuousModeCmd), (20 bytes).
    Removing stm32f4xx_adc.o(i.ADC_DMACmd), (20 bytes).
    Removing stm32f4xx_adc.o(i.ADC_DMARequestAfterLastTransferCmd), (20 bytes).
    Removing stm32f4xx_adc.o(i.ADC_DeInit), (24 bytes).
    Removing stm32f4xx_adc.o(i.ADC_DiscModeChannelCountConfig), (16 bytes).
    Removing stm32f4xx_adc.o(i.ADC_DiscModeCmd), (20 bytes).
    Removing stm32f4xx_adc.o(i.ADC_EOCOnEachRegularChannelCmd), (20 bytes).
    Removing stm32f4xx_adc.o(i.ADC_ExternalTrigInjectedConvConfig), (12 bytes).
    Removing stm32f4xx_adc.o(i.ADC_ExternalTrigInjectedConvEdgeConfig), (12 bytes).
    Removing stm32f4xx_adc.o(i.ADC_GetConversionValue), (6 bytes).
    Removing stm32f4xx_adc.o(i.ADC_GetFlagStatus), (14 bytes).
    Removing stm32f4xx_adc.o(i.ADC_GetITStatus), (28 bytes).
    Removing stm32f4xx_adc.o(i.ADC_GetInjectedConversionValue), (8 bytes).
    Removing stm32f4xx_adc.o(i.ADC_GetMultiModeConversionValue), (12 bytes).
    Removing stm32f4xx_adc.o(i.ADC_GetSoftwareStartConvStatus), (14 bytes).
    Removing stm32f4xx_adc.o(i.ADC_GetSoftwareStartInjectedConvCmdStatus), (14 bytes).
    Removing stm32f4xx_adc.o(i.ADC_ITConfig), (18 bytes).
    Removing stm32f4xx_adc.o(i.ADC_Init), (76 bytes).
    Removing stm32f4xx_adc.o(i.ADC_InjectedChannelConfig), (74 bytes).
    Removing stm32f4xx_adc.o(i.ADC_InjectedDiscModeCmd), (20 bytes).
    Removing stm32f4xx_adc.o(i.ADC_InjectedSequencerLengthConfig), (16 bytes).
    Removing stm32f4xx_adc.o(i.ADC_MultiModeDMARequestAfterLastTransferCmd), (32 bytes).
    Removing stm32f4xx_adc.o(i.ADC_RegularChannelConfig), (116 bytes).
    Removing stm32f4xx_adc.o(i.ADC_SetInjectedOffset), (4 bytes).
    Removing stm32f4xx_adc.o(i.ADC_SoftwareStartConv), (10 bytes).
    Removing stm32f4xx_adc.o(i.ADC_SoftwareStartInjectedConv), (10 bytes).
    Removing stm32f4xx_adc.o(i.ADC_StructInit), (20 bytes).
    Removing stm32f4xx_adc.o(i.ADC_TempSensorVrefintCmd), (32 bytes).
    Removing stm32f4xx_adc.o(i.ADC_VBATCmd), (32 bytes).
    Removing stm32f4xx_dma.o(.emb_text), (8 bytes).
    Removing stm32f4xx_dma.o(i.DMA_ClearFlag), (44 bytes).
    Removing stm32f4xx_dma.o(i.DMA_ClearITPendingBit), (44 bytes).
    Removing stm32f4xx_dma.o(i.DMA_Cmd), (20 bytes).
    Removing stm32f4xx_dma.o(i.DMA_DeInit), (292 bytes).
    Removing stm32f4xx_dma.o(i.DMA_DoubleBufferModeCmd), (20 bytes).
    Removing stm32f4xx_dma.o(i.DMA_DoubleBufferModeConfig), (22 bytes).
    Removing stm32f4xx_dma.o(i.DMA_FlowControllerConfig), (20 bytes).
    Removing stm32f4xx_dma.o(i.DMA_GetCmdStatus), (14 bytes).
    Removing stm32f4xx_dma.o(i.DMA_GetCurrDataCounter), (6 bytes).
    Removing stm32f4xx_dma.o(i.DMA_GetCurrentMemoryTarget), (14 bytes).
    Removing stm32f4xx_dma.o(i.DMA_GetFIFOStatus), (8 bytes).
    Removing stm32f4xx_dma.o(i.DMA_GetFlagStatus), (52 bytes).
    Removing stm32f4xx_dma.o(i.DMA_GetITStatus), (84 bytes).
    Removing stm32f4xx_dma.o(i.DMA_ITConfig), (44 bytes).
    Removing stm32f4xx_dma.o(i.DMA_Init), (84 bytes).
    Removing stm32f4xx_dma.o(i.DMA_MemoryTargetConfig), (10 bytes).
    Removing stm32f4xx_dma.o(i.DMA_PeriphIncOffsetSizeConfig), (20 bytes).
    Removing stm32f4xx_dma.o(i.DMA_SetCurrDataCounter), (4 bytes).
    Removing stm32f4xx_dma.o(i.DMA_StructInit), (34 bytes).
    Removing stm32f4xx_exti.o(.emb_text), (8 bytes).
    Removing stm32f4xx_exti.o(i.EXTI_ClearFlag), (12 bytes).
    Removing stm32f4xx_exti.o(i.EXTI_DeInit), (36 bytes).
    Removing stm32f4xx_exti.o(i.EXTI_GenerateSWInterrupt), (16 bytes).
    Removing stm32f4xx_exti.o(i.EXTI_GetFlagStatus), (20 bytes).
    Removing stm32f4xx_exti.o(i.EXTI_StructInit), (14 bytes).
    Removing stm32f4xx_flash.o(.emb_text), (8 bytes).
    Removing stm32f4xx_flash.o(i.FLASH_ClearFlag), (12 bytes).
    Removing stm32f4xx_flash.o(i.FLASH_DataCacheCmd), (28 bytes).
    Removing stm32f4xx_flash.o(i.FLASH_DataCacheReset), (16 bytes).
    Removing stm32f4xx_flash.o(i.FLASH_EraseAllSectors), (92 bytes).
    Removing stm32f4xx_flash.o(i.FLASH_EraseSector), (108 bytes).
    Removing stm32f4xx_flash.o(i.FLASH_GetFlagStatus), (20 bytes).
    Removing stm32f4xx_flash.o(i.FLASH_GetStatus), (52 bytes).
    Removing stm32f4xx_flash.o(i.FLASH_ITConfig), (24 bytes).
    Removing stm32f4xx_flash.o(i.FLASH_InstructionCacheCmd), (28 bytes).
    Removing stm32f4xx_flash.o(i.FLASH_InstructionCacheReset), (16 bytes).
    Removing stm32f4xx_flash.o(i.FLASH_Lock), (16 bytes).
    Removing stm32f4xx_flash.o(i.FLASH_OB_BORConfig), (24 bytes).
    Removing stm32f4xx_flash.o(i.FLASH_OB_GetBOR), (16 bytes).
    Removing stm32f4xx_flash.o(i.FLASH_OB_GetRDP), (20 bytes).
    Removing stm32f4xx_flash.o(i.FLASH_OB_GetUser), (16 bytes).
    Removing stm32f4xx_flash.o(i.FLASH_OB_GetWRP), (12 bytes).
    Removing stm32f4xx_flash.o(i.FLASH_OB_Launch), (20 bytes).
    Removing stm32f4xx_flash.o(i.FLASH_OB_Lock), (16 bytes).
    Removing stm32f4xx_flash.o(i.FLASH_OB_RDPConfig), (24 bytes).
    Removing stm32f4xx_flash.o(i.FLASH_OB_Unlock), (36 bytes).
    Removing stm32f4xx_flash.o(i.FLASH_OB_UserConfig), (40 bytes).
    Removing stm32f4xx_flash.o(i.FLASH_OB_WRPConfig), (36 bytes).
    Removing stm32f4xx_flash.o(i.FLASH_PrefetchBufferCmd), (28 bytes).
    Removing stm32f4xx_flash.o(i.FLASH_ProgramByte), (56 bytes).
    Removing stm32f4xx_flash.o(i.FLASH_ProgramDoubleWord), (64 bytes).
    Removing stm32f4xx_flash.o(i.FLASH_ProgramHalfWord), (60 bytes).
    Removing stm32f4xx_flash.o(i.FLASH_ProgramWord), (60 bytes).
    Removing stm32f4xx_flash.o(i.FLASH_SetLatency), (12 bytes).
    Removing stm32f4xx_flash.o(i.FLASH_Unlock), (36 bytes).
    Removing stm32f4xx_flash.o(i.FLASH_WaitForLastOperation), (14 bytes).
    Removing stm32f4xx_fsmc.o(.emb_text), (8 bytes).
    Removing stm32f4xx_fsmc.o(i.FSMC_ClearFlag), (42 bytes).
    Removing stm32f4xx_fsmc.o(i.FSMC_ClearITPendingBit), (44 bytes).
    Removing stm32f4xx_fsmc.o(i.FSMC_GetECC), (18 bytes).
    Removing stm32f4xx_fsmc.o(i.FSMC_GetFlagStatus), (40 bytes).
    Removing stm32f4xx_fsmc.o(i.FSMC_GetITStatus), (48 bytes).
    Removing stm32f4xx_fsmc.o(i.FSMC_ITConfig), (80 bytes).
    Removing stm32f4xx_fsmc.o(i.FSMC_NANDCmd), (56 bytes).
    Removing stm32f4xx_fsmc.o(i.FSMC_NANDDeInit), (40 bytes).
    Removing stm32f4xx_fsmc.o(i.FSMC_NANDECCCmd), (56 bytes).
    Removing stm32f4xx_fsmc.o(i.FSMC_NANDInit), (104 bytes).
    Removing stm32f4xx_fsmc.o(i.FSMC_NANDStructInit), (54 bytes).
    Removing stm32f4xx_fsmc.o(i.FSMC_NORSRAMDeInit), (36 bytes).
    Removing stm32f4xx_fsmc.o(i.FSMC_NORSRAMStructInit), (98 bytes).
    Removing stm32f4xx_fsmc.o(i.FSMC_PCCARDCmd), (32 bytes).
    Removing stm32f4xx_fsmc.o(i.FSMC_PCCARDDeInit), (28 bytes).
    Removing stm32f4xx_fsmc.o(i.FSMC_PCCARDInit), (116 bytes).
    Removing stm32f4xx_fsmc.o(i.FSMC_PCCARDStructInit), (60 bytes).
    Removing stm32f4xx_gpio.o(.emb_text), (8 bytes).
    Removing stm32f4xx_gpio.o(i.GPIO_DeInit), (228 bytes).
    Removing stm32f4xx_gpio.o(i.GPIO_PinLockConfig), (16 bytes).
    Removing stm32f4xx_gpio.o(i.GPIO_ReadInputData), (6 bytes).
    Removing stm32f4xx_gpio.o(i.GPIO_ReadInputDataBit), (14 bytes).
    Removing stm32f4xx_gpio.o(i.GPIO_ReadOutputData), (6 bytes).
    Removing stm32f4xx_gpio.o(i.GPIO_ReadOutputDataBit), (14 bytes).
    Removing stm32f4xx_gpio.o(i.GPIO_ResetBits), (4 bytes).
    Removing stm32f4xx_gpio.o(i.GPIO_SetBits), (4 bytes).
    Removing stm32f4xx_gpio.o(i.GPIO_StructInit), (18 bytes).
    Removing stm32f4xx_gpio.o(i.GPIO_ToggleBits), (8 bytes).
    Removing stm32f4xx_gpio.o(i.GPIO_Write), (4 bytes).
    Removing stm32f4xx_gpio.o(i.GPIO_WriteBit), (10 bytes).
    Removing stm32f4xx_rcc.o(.emb_text), (8 bytes).
    Removing stm32f4xx_rcc.o(i.RCC_AHB1PeriphClockLPModeCmd), (24 bytes).
    Removing stm32f4xx_rcc.o(i.RCC_AHB2PeriphClockCmd), (24 bytes).
    Removing stm32f4xx_rcc.o(i.RCC_AHB2PeriphClockLPModeCmd), (24 bytes).
    Removing stm32f4xx_rcc.o(i.RCC_AHB2PeriphResetCmd), (24 bytes).
    Removing stm32f4xx_rcc.o(i.RCC_AHB3PeriphClockLPModeCmd), (24 bytes).
    Removing stm32f4xx_rcc.o(i.RCC_AHB3PeriphResetCmd), (24 bytes).
    Removing stm32f4xx_rcc.o(i.RCC_APB1PeriphClockCmd), (24 bytes).
    Removing stm32f4xx_rcc.o(i.RCC_APB1PeriphClockLPModeCmd), (24 bytes).
    Removing stm32f4xx_rcc.o(i.RCC_APB1PeriphResetCmd), (24 bytes).
    Removing stm32f4xx_rcc.o(i.RCC_APB2PeriphClockLPModeCmd), (24 bytes).
    Removing stm32f4xx_rcc.o(i.RCC_APB2PeriphResetCmd), (24 bytes).
    Removing stm32f4xx_rcc.o(i.RCC_AdjustHSICalibrationValue), (20 bytes).
    Removing stm32f4xx_rcc.o(i.RCC_BackupResetCmd), (12 bytes).
    Removing stm32f4xx_rcc.o(i.RCC_ClearFlag), (16 bytes).
    Removing stm32f4xx_rcc.o(i.RCC_ClearITPendingBit), (12 bytes).
    Removing stm32f4xx_rcc.o(i.RCC_ClockSecuritySystemCmd), (12 bytes).
    Removing stm32f4xx_rcc.o(i.RCC_DeInit), (60 bytes).
    Removing stm32f4xx_rcc.o(i.RCC_GetFlagStatus), (52 bytes).
    Removing stm32f4xx_rcc.o(i.RCC_GetITStatus), (20 bytes).
    Removing stm32f4xx_rcc.o(i.RCC_GetSYSCLKSource), (16 bytes).
    Removing stm32f4xx_rcc.o(i.RCC_HCLKConfig), (20 bytes).
    Removing stm32f4xx_rcc.o(i.RCC_HSEConfig), (16 bytes).
    Removing stm32f4xx_rcc.o(i.RCC_HSICmd), (12 bytes).
    Removing stm32f4xx_rcc.o(i.RCC_I2SCLKConfig), (12 bytes).
    Removing stm32f4xx_rcc.o(i.RCC_ITConfig), (24 bytes).
    Removing stm32f4xx_rcc.o(i.RCC_LSEConfig), (28 bytes).
    Removing stm32f4xx_rcc.o(i.RCC_LSICmd), (12 bytes).
    Removing stm32f4xx_rcc.o(i.RCC_MCO2Config), (20 bytes).
    Removing stm32f4xx_rcc.o(i.RCC_PCLK1Config), (20 bytes).
    Removing stm32f4xx_rcc.o(i.RCC_PCLK2Config), (20 bytes).
    Removing stm32f4xx_rcc.o(i.RCC_PLLCmd), (12 bytes).
    Removing stm32f4xx_rcc.o(i.RCC_PLLConfig), (40 bytes).
    Removing stm32f4xx_rcc.o(i.RCC_PLLI2SCmd), (12 bytes).
    Removing stm32f4xx_rcc.o(i.RCC_PLLI2SConfig), (16 bytes).
    Removing stm32f4xx_rcc.o(i.RCC_RTCCLKCmd), (12 bytes).
    Removing stm32f4xx_rcc.o(i.RCC_RTCCLKConfig), (48 bytes).
    Removing stm32f4xx_rcc.o(i.RCC_SYSCLKConfig), (20 bytes).
    Removing stm32f4xx_rcc.o(i.RCC_WaitForHSEStartUp), (38 bytes).
    Removing stm32f4xx_sdio.o(.emb_text), (8 bytes).
    Removing stm32f4xx_sdio.o(i.SDIO_CEATAITCmd), (16 bytes).
    Removing stm32f4xx_sdio.o(i.SDIO_ClearFlag), (12 bytes).
    Removing stm32f4xx_sdio.o(i.SDIO_ClearITPendingBit), (12 bytes).
    Removing stm32f4xx_sdio.o(i.SDIO_ClockCmd), (12 bytes).
    Removing stm32f4xx_sdio.o(i.SDIO_CmdStructInit), (14 bytes).
    Removing stm32f4xx_sdio.o(i.SDIO_CommandCompletionCmd), (12 bytes).
    Removing stm32f4xx_sdio.o(i.SDIO_DMACmd), (12 bytes).
    Removing stm32f4xx_sdio.o(i.SDIO_DataConfig), (48 bytes).
    Removing stm32f4xx_sdio.o(i.SDIO_DataStructInit), (20 bytes).
    Removing stm32f4xx_sdio.o(i.SDIO_DeInit), (24 bytes).
    Removing stm32f4xx_sdio.o(i.SDIO_GetCommandResponse), (12 bytes).
    Removing stm32f4xx_sdio.o(i.SDIO_GetDataCounter), (12 bytes).
    Removing stm32f4xx_sdio.o(i.SDIO_GetFIFOCount), (12 bytes).
    Removing stm32f4xx_sdio.o(i.SDIO_GetFlagStatus), (20 bytes).
    Removing stm32f4xx_sdio.o(i.SDIO_GetITStatus), (20 bytes).
    Removing stm32f4xx_sdio.o(i.SDIO_GetPowerState), (16 bytes).
    Removing stm32f4xx_sdio.o(i.SDIO_GetResponse), (12 bytes).
    Removing stm32f4xx_sdio.o(i.SDIO_ITConfig), (24 bytes).
    Removing stm32f4xx_sdio.o(i.SDIO_Init), (44 bytes).
    Removing stm32f4xx_sdio.o(i.SDIO_ReadData), (12 bytes).
    Removing stm32f4xx_sdio.o(i.SDIO_SendCEATACmd), (12 bytes).
    Removing stm32f4xx_sdio.o(i.SDIO_SendCommand), (40 bytes).
    Removing stm32f4xx_sdio.o(i.SDIO_SendSDIOSuspendCmd), (12 bytes).
    Removing stm32f4xx_sdio.o(i.SDIO_SetPowerState), (12 bytes).
    Removing stm32f4xx_sdio.o(i.SDIO_SetSDIOOperation), (12 bytes).
    Removing stm32f4xx_sdio.o(i.SDIO_SetSDIOReadWaitMode), (12 bytes).
    Removing stm32f4xx_sdio.o(i.SDIO_StartSDIOReadWait), (12 bytes).
    Removing stm32f4xx_sdio.o(i.SDIO_StopSDIOReadWait), (12 bytes).
    Removing stm32f4xx_sdio.o(i.SDIO_StructInit), (16 bytes).
    Removing stm32f4xx_sdio.o(i.SDIO_WriteData), (12 bytes).
    Removing stm32f4xx_syscfg.o(.emb_text), (8 bytes).
    Removing stm32f4xx_syscfg.o(i.SYSCFG_CompensationCellCmd), (12 bytes).
    Removing stm32f4xx_syscfg.o(i.SYSCFG_DeInit), (24 bytes).
    Removing stm32f4xx_syscfg.o(i.SYSCFG_GetCompensationCellStatus), (20 bytes).
    Removing stm32f4xx_syscfg.o(i.SYSCFG_MemoryRemapConfig), (12 bytes).
    Removing stm32f4xx_i2c.o(.emb_text), (8 bytes).
    Removing stm32f4xx_i2c.o(i.I2C_ARPCmd), (20 bytes).
    Removing stm32f4xx_i2c.o(i.I2C_AcknowledgeConfig), (20 bytes).
    Removing stm32f4xx_i2c.o(i.I2C_CalculatePEC), (20 bytes).
    Removing stm32f4xx_i2c.o(i.I2C_CheckEvent), (24 bytes).
    Removing stm32f4xx_i2c.o(i.I2C_ClearFlag), (6 bytes).
    Removing stm32f4xx_i2c.o(i.I2C_ClearITPendingBit), (6 bytes).
    Removing stm32f4xx_i2c.o(i.I2C_Cmd), (20 bytes).
    Removing stm32f4xx_i2c.o(i.I2C_DMACmd), (20 bytes).
    Removing stm32f4xx_i2c.o(i.I2C_DMALastTransferCmd), (20 bytes).
    Removing stm32f4xx_i2c.o(i.I2C_DeInit), (68 bytes).
    Removing stm32f4xx_i2c.o(i.I2C_DualAddressCmd), (20 bytes).
    Removing stm32f4xx_i2c.o(i.I2C_FastModeDutyCycleConfig), (22 bytes).
    Removing stm32f4xx_i2c.o(i.I2C_GeneralCallCmd), (20 bytes).
    Removing stm32f4xx_i2c.o(i.I2C_GenerateSTART), (20 bytes).
    Removing stm32f4xx_i2c.o(i.I2C_GenerateSTOP), (20 bytes).
    Removing stm32f4xx_i2c.o(i.I2C_GetFlagStatus), (30 bytes).
    Removing stm32f4xx_i2c.o(i.I2C_GetITStatus), (32 bytes).
    Removing stm32f4xx_i2c.o(i.I2C_GetLastEvent), (14 bytes).
    Removing stm32f4xx_i2c.o(i.I2C_GetPEC), (6 bytes).
    Removing stm32f4xx_i2c.o(i.I2C_ITConfig), (16 bytes).
    Removing stm32f4xx_i2c.o(i.I2C_Init), (180 bytes).
    Removing stm32f4xx_i2c.o(i.I2C_NACKPositionConfig), (22 bytes).
    Removing stm32f4xx_i2c.o(i.I2C_OwnAddress2Config), (16 bytes).
    Removing stm32f4xx_i2c.o(i.I2C_PECPositionConfig), (22 bytes).
    Removing stm32f4xx_i2c.o(i.I2C_ReadRegister), (4 bytes).
    Removing stm32f4xx_i2c.o(i.I2C_ReceiveData), (6 bytes).
    Removing stm32f4xx_i2c.o(i.I2C_SMBusAlertConfig), (22 bytes).
    Removing stm32f4xx_i2c.o(i.I2C_Send7bitAddress), (16 bytes).
    Removing stm32f4xx_i2c.o(i.I2C_SendData), (4 bytes).
    Removing stm32f4xx_i2c.o(i.I2C_SoftwareResetCmd), (20 bytes).
    Removing stm32f4xx_i2c.o(i.I2C_StretchClockCmd), (20 bytes).
    Removing stm32f4xx_i2c.o(i.I2C_StructInit), (28 bytes).
    Removing stm32f4xx_i2c.o(i.I2C_TransmitPEC), (20 bytes).
    Removing stm32f4x7_eth.o(.emb_text), (8 bytes).
    Removing stm32f4x7_eth.o(i.ETH_BackPressureActivationCmd), (28 bytes).
    Removing stm32f4x7_eth.o(i.ETH_CheckFrameReceived), (100 bytes).
    Removing stm32f4x7_eth.o(i.ETH_DMAClearFlag), (12 bytes).
    Removing stm32f4x7_eth.o(i.ETH_DMATxDescBufferSizeConfig), (12 bytes).
    Removing stm32f4x7_eth.o(i.ETH_DMATxDescCRCCmd), (20 bytes).
    Removing stm32f4x7_eth.o(i.ETH_DMATxDescFrameSegmentConfig), (8 bytes).
    Removing stm32f4x7_eth.o(i.ETH_DMATxDescSecondAddressChainedCmd), (20 bytes).
    Removing stm32f4x7_eth.o(i.ETH_DMATxDescShortFramePaddingCmd), (20 bytes).
    Removing stm32f4x7_eth.o(i.ETH_DMATxDescTransmitITConfig), (20 bytes).
    Removing stm32f4x7_eth.o(i.ETH_EnhancedDescriptorCmd), (28 bytes).
    Removing stm32f4x7_eth.o(i.ETH_GetBufferUnavailableMissedFrameCounter), (12 bytes).
    Removing stm32f4x7_eth.o(i.ETH_GetCurrentRxBufferAddress), (12 bytes).
    Removing stm32f4x7_eth.o(i.ETH_GetCurrentRxDescStartAddress), (12 bytes).
    Removing stm32f4x7_eth.o(i.ETH_GetCurrentTxBufferAddress), (12 bytes).
    Removing stm32f4x7_eth.o(i.ETH_GetCurrentTxDescStartAddress), (12 bytes).
    Removing stm32f4x7_eth.o(i.ETH_GetDMAITStatus), (20 bytes).
    Removing stm32f4x7_eth.o(i.ETH_GetDMAOverflowStatus), (20 bytes).
    Removing stm32f4x7_eth.o(i.ETH_GetDMAPTPRxDescExtendedFlagStatus), (14 bytes).
    Removing stm32f4x7_eth.o(i.ETH_GetDMARxDescBufferSize), (16 bytes).
    Removing stm32f4x7_eth.o(i.ETH_GetDMARxDescFlagStatus), (14 bytes).
    Removing stm32f4x7_eth.o(i.ETH_GetDMARxDescFrameLength), (8 bytes).
    Removing stm32f4x7_eth.o(i.ETH_GetDMATxDescCollisionCount), (8 bytes).
    Removing stm32f4x7_eth.o(i.ETH_GetDMATxDescFlagStatus), (14 bytes).
    Removing stm32f4x7_eth.o(i.ETH_GetFlowControlBusyStatus), (20 bytes).
    Removing stm32f4x7_eth.o(i.ETH_GetFlushTransmitFIFOStatus), (20 bytes).
    Removing stm32f4x7_eth.o(i.ETH_GetMACAddress), (36 bytes).
    Removing stm32f4x7_eth.o(i.ETH_GetMACFlagStatus), (20 bytes).
    Removing stm32f4x7_eth.o(i.ETH_GetMACITStatus), (20 bytes).
    Removing stm32f4x7_eth.o(i.ETH_GetMMCITStatus), (40 bytes).
    Removing stm32f4x7_eth.o(i.ETH_GetMMCRegister), (12 bytes).
    Removing stm32f4x7_eth.o(i.ETH_GetPMTFlagStatus), (20 bytes).
    Removing stm32f4x7_eth.o(i.ETH_GetReceiveProcessState), (16 bytes).
    Removing stm32f4x7_eth.o(i.ETH_GetRxOverflowMissedFrameCounter), (16 bytes).
    Removing stm32f4x7_eth.o(i.ETH_GetRxPktSize), (30 bytes).
    Removing stm32f4x7_eth.o(i.ETH_GetTransmitProcessState), (16 bytes).
    Removing stm32f4x7_eth.o(i.ETH_Get_Received_Frame), (48 bytes).
    Removing stm32f4x7_eth.o(i.ETH_GlobalUnicastWakeUpCmd), (28 bytes).
    Removing stm32f4x7_eth.o(i.ETH_InitiatePauseControlFrame), (16 bytes).
    Removing stm32f4x7_eth.o(i.ETH_MACAddressFilterConfig), (28 bytes).
    Removing stm32f4x7_eth.o(i.ETH_MACAddressMaskBytesFilterConfig), (24 bytes).
    Removing stm32f4x7_eth.o(i.ETH_MACAddressPerfectFilterCmd), (28 bytes).
    Removing stm32f4x7_eth.o(i.ETH_MACITConfig), (24 bytes).
    Removing stm32f4x7_eth.o(i.ETH_MMCCounterFreezeCmd), (32 bytes).
    Removing stm32f4x7_eth.o(i.ETH_MMCCounterFullPreset), (16 bytes).
    Removing stm32f4x7_eth.o(i.ETH_MMCCounterHalfPreset), (24 bytes).
    Removing stm32f4x7_eth.o(i.ETH_MMCCounterRolloverCmd), (32 bytes).
    Removing stm32f4x7_eth.o(i.ETH_MMCCountersReset), (16 bytes).
    Removing stm32f4x7_eth.o(i.ETH_MMCITConfig), (56 bytes).
    Removing stm32f4x7_eth.o(i.ETH_MMCResetOnReadCmd), (32 bytes).
    Removing stm32f4x7_eth.o(i.ETH_MagicPacketDetectionCmd), (28 bytes).
    Removing stm32f4x7_eth.o(i.ETH_PHYLoopBackCmd), (40 bytes).
    Removing stm32f4x7_eth.o(i.ETH_PowerDownCmd), (28 bytes).
    Removing stm32f4x7_eth.o(i.ETH_ResetWakeUpFrameFilterRegisterPointer), (16 bytes).
    Removing stm32f4x7_eth.o(i.ETH_ResumeDMAReception), (12 bytes).
    Removing stm32f4x7_eth.o(i.ETH_ResumeDMATransmission), (12 bytes).
    Removing stm32f4x7_eth.o(i.ETH_SetDMARxDescOwnBit), (10 bytes).
    Removing stm32f4x7_eth.o(i.ETH_SetDMATxDescOwnBit), (10 bytes).
    Removing stm32f4x7_eth.o(i.ETH_SetReceiveWatchdogTimer), (12 bytes).
    Removing stm32f4x7_eth.o(i.ETH_SetWakeUpFrameFilterRegister), (24 bytes).
    Removing stm32f4x7_eth.o(i.ETH_WakeUpFrameDetectionCmd), (28 bytes).
    Removing stm32f4x7_eth.o(.data), (4 bytes).
    Removing stm324xg_eval_lcd.o(.emb_text), (8 bytes).
    Removing stm324xg_eval_lcd.o(i.LCD_ClearLine), (48 bytes).
    Removing stm324xg_eval_lcd.o(i.LCD_ClosedPolyLine), (34 bytes).
    Removing stm324xg_eval_lcd.o(i.LCD_ClosedPolyLineRelative), (6 bytes).
    Removing stm324xg_eval_lcd.o(i.LCD_DeInit), (284 bytes).
    Removing stm324xg_eval_lcd.o(i.LCD_DrawCircle), (292 bytes).
    Removing stm324xg_eval_lcd.o(i.LCD_DrawFullCircle), (176 bytes).
    Removing stm324xg_eval_lcd.o(i.LCD_DrawFullRect), (132 bytes).
    Removing stm324xg_eval_lcd.o(i.LCD_DrawLine), (100 bytes).
    Removing stm324xg_eval_lcd.o(i.LCD_DrawMonoPict), (80 bytes).
    Removing stm324xg_eval_lcd.o(i.LCD_DrawRect), (64 bytes).
    Removing stm324xg_eval_lcd.o(i.LCD_DrawUniLine), (184 bytes).
    Removing stm324xg_eval_lcd.o(i.LCD_FillPolyLine), (424 bytes).
    Removing stm324xg_eval_lcd.o(i.LCD_GetColors), (16 bytes).
    Removing stm324xg_eval_lcd.o(i.LCD_PolyLine), (40 bytes).
    Removing stm324xg_eval_lcd.o(i.LCD_PolyLineRelative), (6 bytes).
    Removing stm324xg_eval_lcd.o(i.LCD_PolyLineRelativeClosed), (98 bytes).
    Removing stm324xg_eval_lcd.o(i.LCD_ReadRAM), (12 bytes).
    Removing stm324xg_eval_lcd.o(i.LCD_SetColors), (12 bytes).
    Removing stm324xg_eval_lcd.o(i.LCD_SetFont), (12 bytes).
    Removing stm324xg_eval_lcd.o(i.LCD_WriteBMP), (60 bytes).
    Removing stm324xg_eval_lcd.o(i.LCD_WriteRAM), (12 bytes).
    Removing stm324xg_eval_lcd.o(i.LCD_WriteRAM_Prepare), (10 bytes).
    Removing stm324xg_eval_lcd.o(i.PutPixel), (28 bytes).
    Removing stm324xg_eval_lcd.o(.constdata), (2304 bytes).
    Removing stm324xg_eval_lcd.o(.constdata), (2304 bytes).
    Removing stm324xg_eval_lcd.o(.constdata), (1536 bytes).
    Removing stm324xg_eval_lcd.o(.data), (8 bytes).
    Removing stm324xg_eval_lcd.o(.data), (8 bytes).
    Removing stm324xg_eval_lcd.o(.data), (8 bytes).
    Removing stm324xg_eval.o(.emb_text), (8 bytes).
    Removing stm324xg_eval.o(i.SD_LowLevel_DMA_RxConfig), (136 bytes).
    Removing stm324xg_eval.o(i.SD_LowLevel_DMA_TxConfig), (136 bytes).
    Removing stm324xg_eval.o(i.SD_LowLevel_DeInit), (152 bytes).
    Removing stm324xg_eval.o(i.SD_LowLevel_Init), (192 bytes).
    Removing stm324xg_eval.o(i.STM_EVAL_COMInit), (200 bytes).
    Removing stm324xg_eval.o(i.STM_EVAL_LEDOff), (24 bytes).
    Removing stm324xg_eval.o(i.STM_EVAL_LEDOn), (24 bytes).
    Removing stm324xg_eval.o(i.STM_EVAL_PBGetState), (24 bytes).
    Removing stm324xg_eval.o(i.STM_EVAL_PBInit), (172 bytes).
    Removing stm324xg_eval.o(i.sEE_LowLevel_DMAConfig), (44 bytes).
    Removing stm324xg_eval.o(i.sEE_LowLevel_DeInit), (148 bytes).
    Removing stm324xg_eval.o(i.sEE_LowLevel_Init), (320 bytes).
    Removing stm324xg_eval.o(.bss), (60 bytes).
    Removing port.o(i.vPortEndScheduler), (2 bytes).
    Removing heap_2.o(i.vPortInitialiseBlocks), (2 bytes).
    Removing heap_2.o(i.xPortGetFreeHeapSize), (12 bytes).
    Removing tasks.o(i.uxTaskGetNumberOfTasks), (12 bytes).
    Removing tasks.o(i.uxTaskPriorityGet), (28 bytes).
    Removing tasks.o(i.vTaskDelete), (100 bytes).
    Removing tasks.o(i.vTaskEndScheduler), (24 bytes).
    Removing tasks.o(i.vTaskPrioritySet), (156 bytes).
    Removing tasks.o(i.xTaskGetTickCountFromISR), (12 bytes).
    Removing croutine.o(i.prvCheckDelayedList), (132 bytes).
    Removing croutine.o(i.prvCheckPendingReadyList), (92 bytes).
    Removing croutine.o(i.vCoRoutineAddToDelayedList), (64 bytes).
    Removing croutine.o(i.vCoRoutineSchedule), (88 bytes).
    Removing croutine.o(i.xCoRoutineCreate), (176 bytes).
    Removing croutine.o(i.xCoRoutineRemoveFromEventList), (60 bytes).
    Removing croutine.o(.bss), (100 bytes).
    Removing croutine.o(.data), (28 bytes).
    Removing queue.o(i.uxQueueMessagesWaitingFromISR), (4 bytes).
    Removing queue.o(i.xQueueCreateMutex), (68 bytes).
    Removing queue.o(i.xQueueIsQueueEmptyFromISR), (12 bytes).
    Removing queue.o(i.xQueueIsQueueFullFromISR), (16 bytes).
    Removing queue.o(i.xQueueReceiveFromISR), (78 bytes).
    Removing dflti.o(.text), (34 bytes).
    Removing dfltui.o(.text), (26 bytes).
    Removing cdcmple.o(.text), (40 bytes).
    Removing cdrcmple.o(.text), (40 bytes).
    Removing depilogue.o(.text), (190 bytes).
    Removing dadd.o(.text), (332 bytes).
    Removing dmul.o(.text), (224 bytes).
    Removing ddiv.o(.text), (222 bytes).
    Removing dfixul.o(.text), (48 bytes).

477 unused section(s) (total 25520 bytes) removed from the image.

==============================================================================

Image Symbol Table

    Local Symbols

    Symbol Name                              Value     Ov Type        Size  Object(Section)

    ../../../cmprslib/zerorunl2.c            0x00000000   Number         0  __dczerorl2.o ABSOLUTE
    ../../microlib/division.c                0x00000000   Number         0  uldiv.o ABSOLUTE
    ../../microlib/division.c                0x00000000   Number         0  uidiv.o ABSOLUTE
    ../../microlib/fpadd.c                   0x00000000   Number         0  dadd.o ABSOLUTE
    ../../microlib/fpdiv.c                   0x00000000   Number         0  ddiv.o ABSOLUTE
    ../../microlib/fpepilogue.c              0x00000000   Number         0  depilogue.o ABSOLUTE
    ../../microlib/fpfix.c                   0x00000000   Number         0  dfixul.o ABSOLUTE
    ../../microlib/fpflt.c                   0x00000000   Number         0  dflti.o ABSOLUTE
    ../../microlib/fpflt.c                   0x00000000   Number         0  dfltui.o ABSOLUTE
    ../../microlib/fpmul.c                   0x00000000   Number         0  dmul.o ABSOLUTE
    ../../microlib/init/entry.s              0x00000000   Number         0  entry8.o ABSOLUTE
    ../../microlib/init/entry.s              0x00000000   Number         0  entry7b.o ABSOLUTE
    ../../microlib/init/entry.s              0x00000000   Number         0  entry7a.o ABSOLUTE
    ../../microlib/init/entry.s              0x00000000   Number         0  entry5.o ABSOLUTE
    ../../microlib/init/entry.s              0x00000000   Number         0  entry.o ABSOLUTE
    ../../microlib/init/entry.s              0x00000000   Number         0  entry2.o ABSOLUTE
    ../../microlib/longlong.c                0x00000000   Number         0  llushr.o ABSOLUTE
    ../../microlib/longlong.c                0x00000000   Number         0  llshl.o ABSOLUTE
    ../../microlib/longlong.c                0x00000000   Number         0  llsshr.o ABSOLUTE
    ../../microlib/printf/printf.c           0x00000000   Number         0  printf0.o ABSOLUTE
    ../../microlib/printf/printf.c           0x00000000   Number         0  printfa.o ABSOLUTE
    ../../microlib/printf/printf.c           0x00000000   Number         0  printf5.o ABSOLUTE
    ../../microlib/printf/printf.c           0x00000000   Number         0  printf8.o ABSOLUTE
    ../../microlib/printf/printf.c           0x00000000   Number         0  printf1.o ABSOLUTE
    ../../microlib/printf/printf.c           0x00000000   Number         0  printf7.o ABSOLUTE
    ../../microlib/printf/printf.c           0x00000000   Number         0  printf6.o ABSOLUTE
    ../../microlib/printf/printf.c           0x00000000   Number         0  printf2.o ABSOLUTE
    ../../microlib/printf/printf.c           0x00000000   Number         0  printf3.o ABSOLUTE
    ../../microlib/printf/printf.c           0x00000000   Number         0  printf4.o ABSOLUTE
    ../../microlib/printf/printf.c           0x00000000   Number         0  printfb.o ABSOLUTE
    ../../microlib/printf/stubs.s            0x00000000   Number         0  stubs.o ABSOLUTE
    ../../microlib/stdio/fputc.c             0x00000000   Number         0  fputc.o ABSOLUTE
    ../../microlib/stdio/semi.s              0x00000000   Number         0  semi.o ABSOLUTE
    ../../microlib/stdio/streams.c           0x00000000   Number         0  stdout.o ABSOLUTE
    ../../microlib/string/memcmp.c           0x00000000   Number         0  memcmp.o ABSOLUTE
    ../../microlib/string/memcpy.c           0x00000000   Number         0  memcpya.o ABSOLUTE
    ../../microlib/string/memcpy.c           0x00000000   Number         0  memcpyb.o ABSOLUTE
    ../../microlib/string/memset.c           0x00000000   Number         0  memseta.o ABSOLUTE
    ../../microlib/string/strncpy.c          0x00000000   Number         0  strncpy.o ABSOLUTE
    ../../microlib/stubs.s                   0x00000000   Number         0  iusesemip.o ABSOLUTE
    ../../microlib/stubs.s                   0x00000000   Number         0  iusefp.o ABSOLUTE
    ..\..\..\..\Libraries\STM32F4x7_ETH_Driver\src\stm32f4x7_eth.c 0x00000000   Number         0  stm32f4x7_eth.o ABSOLUTE
    ..\..\..\..\Libraries\STM32F4xx_StdPeriph_Driver\src\misc.c 0x00000000   Number         0  misc.o ABSOLUTE
    ..\..\..\..\Libraries\STM32F4xx_StdPeriph_Driver\src\stm32f4xx_adc.c 0x00000000   Number         0  stm32f4xx_adc.o ABSOLUTE
    ..\..\..\..\Libraries\STM32F4xx_StdPeriph_Driver\src\stm32f4xx_dma.c 0x00000000   Number         0  stm32f4xx_dma.o ABSOLUTE
    ..\..\..\..\Libraries\STM32F4xx_StdPeriph_Driver\src\stm32f4xx_exti.c 0x00000000   Number         0  stm32f4xx_exti.o ABSOLUTE
    ..\..\..\..\Libraries\STM32F4xx_StdPeriph_Driver\src\stm32f4xx_flash.c 0x00000000   Number         0  stm32f4xx_flash.o ABSOLUTE
    ..\..\..\..\Libraries\STM32F4xx_StdPeriph_Driver\src\stm32f4xx_fsmc.c 0x00000000   Number         0  stm32f4xx_fsmc.o ABSOLUTE
    ..\..\..\..\Libraries\STM32F4xx_StdPeriph_Driver\src\stm32f4xx_gpio.c 0x00000000   Number         0  stm32f4xx_gpio.o ABSOLUTE
    ..\..\..\..\Libraries\STM32F4xx_StdPeriph_Driver\src\stm32f4xx_i2c.c 0x00000000   Number         0  stm32f4xx_i2c.o ABSOLUTE
    ..\..\..\..\Libraries\STM32F4xx_StdPeriph_Driver\src\stm32f4xx_rcc.c 0x00000000   Number         0  stm32f4xx_rcc.o ABSOLUTE
    ..\..\..\..\Libraries\STM32F4xx_StdPeriph_Driver\src\stm32f4xx_sdio.c 0x00000000   Number         0  stm32f4xx_sdio.o ABSOLUTE
    ..\..\..\..\Libraries\STM32F4xx_StdPeriph_Driver\src\stm32f4xx_syscfg.c 0x00000000   Number         0  stm32f4xx_syscfg.o ABSOLUTE
    ..\..\..\..\Libraries\STM32F4xx_StdPeriph_Driver\src\stm32f4xx_usart.c 0x00000000   Number         0  stm32f4xx_usart.o ABSOLUTE
    ..\..\..\..\Utilities\STM32_EVAL\STM3240_41_G_EVAL\stm324xg_eval.c 0x00000000   Number         0  stm324xg_eval.o ABSOLUTE
    ..\..\..\..\Utilities\STM32_EVAL\STM3240_41_G_EVAL\stm324xg_eval_lcd.c 0x00000000   Number         0  stm324xg_eval_lcd.o ABSOLUTE
    ..\..\..\..\Utilities\Third_Party\FreeRTOS_v6.1.0\croutine.c 0x00000000   Number         0  croutine.o ABSOLUTE
    ..\..\..\..\Utilities\Third_Party\FreeRTOS_v6.1.0\list.c 0x00000000   Number         0  list.o ABSOLUTE
    ..\..\..\..\Utilities\Third_Party\FreeRTOS_v6.1.0\portable\MDK-ARM\ARM_CM3\port.c 0x00000000   Number         0  port.o ABSOLUTE
    ..\..\..\..\Utilities\Third_Party\FreeRTOS_v6.1.0\portable\MemMang\heap_2.c 0x00000000   Number         0  heap_2.o ABSOLUTE
    ..\..\..\..\Utilities\Third_Party\FreeRTOS_v6.1.0\queue.c 0x00000000   Number         0  queue.o ABSOLUTE
    ..\..\..\..\Utilities\Third_Party\FreeRTOS_v6.1.0\tasks.c 0x00000000   Number         0  tasks.o ABSOLUTE
    ..\..\..\..\Utilities\Third_Party\lwip_v1.3.2\port\STM32F4x7\FreeRTOS\ethernetif.c 0x00000000   Number         0  ethernetif.o ABSOLUTE
    ..\..\..\..\Utilities\Third_Party\lwip_v1.3.2\port\STM32F4x7\FreeRTOS\sys_arch.c 0x00000000   Number         0  sys_arch.o ABSOLUTE
    ..\..\..\..\Utilities\Third_Party\lwip_v1.3.2\src\api\api_lib.c 0x00000000   Number         0  api_lib.o ABSOLUTE
    ..\..\..\..\Utilities\Third_Party\lwip_v1.3.2\src\api\api_msg.c 0x00000000   Number         0  api_msg.o ABSOLUTE
    ..\..\..\..\Utilities\Third_Party\lwip_v1.3.2\src\api\err.c 0x00000000   Number         0  err.o ABSOLUTE
    ..\..\..\..\Utilities\Third_Party\lwip_v1.3.2\src\api\netbuf.c 0x00000000   Number         0  netbuf.o ABSOLUTE
    ..\..\..\..\Utilities\Third_Party\lwip_v1.3.2\src\api\netdb.c 0x00000000   Number         0  netdb.o ABSOLUTE
    ..\..\..\..\Utilities\Third_Party\lwip_v1.3.2\src\api\netifapi.c 0x00000000   Number         0  netifapi.o ABSOLUTE
    ..\..\..\..\Utilities\Third_Party\lwip_v1.3.2\src\api\sockets.c 0x00000000   Number         0  sockets.o ABSOLUTE
    ..\..\..\..\Utilities\Third_Party\lwip_v1.3.2\src\api\tcpip.c 0x00000000   Number         0  tcpip.o ABSOLUTE
    ..\..\..\..\Utilities\Third_Party\lwip_v1.3.2\src\core\dhcp.c 0x00000000   Number         0  dhcp.o ABSOLUTE
    ..\..\..\..\Utilities\Third_Party\lwip_v1.3.2\src\core\dns.c 0x00000000   Number         0  dns.o ABSOLUTE
    ..\..\..\..\Utilities\Third_Party\lwip_v1.3.2\src\core\init.c 0x00000000   Number         0  init.o ABSOLUTE
    ..\..\..\..\Utilities\Third_Party\lwip_v1.3.2\src\core\ipv4\autoip.c 0x00000000   Number         0  autoip.o ABSOLUTE
    ..\..\..\..\Utilities\Third_Party\lwip_v1.3.2\src\core\ipv4\icmp.c 0x00000000   Number         0  icmp.o ABSOLUTE
    ..\..\..\..\Utilities\Third_Party\lwip_v1.3.2\src\core\ipv4\igmp.c 0x00000000   Number         0  igmp.o ABSOLUTE
    ..\..\..\..\Utilities\Third_Party\lwip_v1.3.2\src\core\ipv4\inet.c 0x00000000   Number         0  inet.o ABSOLUTE
    ..\..\..\..\Utilities\Third_Party\lwip_v1.3.2\src\core\ipv4\inet_chksum.c 0x00000000   Number         0  inet_chksum.o ABSOLUTE
    ..\..\..\..\Utilities\Third_Party\lwip_v1.3.2\src\core\ipv4\ip.c 0x00000000   Number         0  ip.o ABSOLUTE
    ..\..\..\..\Utilities\Third_Party\lwip_v1.3.2\src\core\ipv4\ip_addr.c 0x00000000   Number         0  ip_addr.o ABSOLUTE
    ..\..\..\..\Utilities\Third_Party\lwip_v1.3.2\src\core\ipv4\ip_frag.c 0x00000000   Number         0  ip_frag.o ABSOLUTE
    ..\..\..\..\Utilities\Third_Party\lwip_v1.3.2\src\core\mem.c 0x00000000   Number         0  mem.o ABSOLUTE
    ..\..\..\..\Utilities\Third_Party\lwip_v1.3.2\src\core\memp.c 0x00000000   Number         0  memp.o ABSOLUTE
    ..\..\..\..\Utilities\Third_Party\lwip_v1.3.2\src\core\netif.c 0x00000000   Number         0  netif.o ABSOLUTE
    ..\..\..\..\Utilities\Third_Party\lwip_v1.3.2\src\core\pbuf.c 0x00000000   Number         0  pbuf.o ABSOLUTE
    ..\..\..\..\Utilities\Third_Party\lwip_v1.3.2\src\core\raw.c 0x00000000   Number         0  raw.o ABSOLUTE
    ..\..\..\..\Utilities\Third_Party\lwip_v1.3.2\src\core\stats.c 0x00000000   Number         0  stats.o ABSOLUTE
    ..\..\..\..\Utilities\Third_Party\lwip_v1.3.2\src\core\sys.c 0x00000000   Number         0  sys.o ABSOLUTE
    ..\..\..\..\Utilities\Third_Party\lwip_v1.3.2\src\core\tcp.c 0x00000000   Number         0  tcp.o ABSOLUTE
    ..\..\..\..\Utilities\Third_Party\lwip_v1.3.2\src\core\tcp_in.c 0x00000000   Number         0  tcp_in.o ABSOLUTE
    ..\..\..\..\Utilities\Third_Party\lwip_v1.3.2\src\core\tcp_out.c 0x00000000   Number         0  tcp_out.o ABSOLUTE
    ..\..\..\..\Utilities\Third_Party\lwip_v1.3.2\src\core\udp.c 0x00000000   Number         0  udp.o ABSOLUTE
    ..\..\..\..\Utilities\Third_Party\lwip_v1.3.2\src\netif\etharp.c 0x00000000   Number         0  etharp.o ABSOLUTE
    ..\..\..\..\Utilities\Third_Party\lwip_v1.3.2\src\netif\loopif.c 0x00000000   Number         0  loopif.o ABSOLUTE
    ..\..\..\..\Utilities\Third_Party\lwip_v1.3.2\src\netif\slipif.c 0x00000000   Number         0  slipif.o ABSOLUTE
    ..\\..\\..\\..\\Libraries\\STM32F4x7_ETH_Driver\\src\\stm32f4x7_eth.c 0x00000000   Number         0  stm32f4x7_eth.o ABSOLUTE
    ..\\..\\..\\..\\Libraries\\STM32F4xx_StdPeriph_Driver\\src\\misc.c 0x00000000   Number         0  misc.o ABSOLUTE
    ..\\..\\..\\..\\Libraries\\STM32F4xx_StdPeriph_Driver\\src\\stm32f4xx_adc.c 0x00000000   Number         0  stm32f4xx_adc.o ABSOLUTE
    ..\\..\\..\\..\\Libraries\\STM32F4xx_StdPeriph_Driver\\src\\stm32f4xx_dma.c 0x00000000   Number         0  stm32f4xx_dma.o ABSOLUTE
    ..\\..\\..\\..\\Libraries\\STM32F4xx_StdPeriph_Driver\\src\\stm32f4xx_exti.c 0x00000000   Number         0  stm32f4xx_exti.o ABSOLUTE
    ..\\..\\..\\..\\Libraries\\STM32F4xx_StdPeriph_Driver\\src\\stm32f4xx_flash.c 0x00000000   Number         0  stm32f4xx_flash.o ABSOLUTE
    ..\\..\\..\\..\\Libraries\\STM32F4xx_StdPeriph_Driver\\src\\stm32f4xx_fsmc.c 0x00000000   Number         0  stm32f4xx_fsmc.o ABSOLUTE
    ..\\..\\..\\..\\Libraries\\STM32F4xx_StdPeriph_Driver\\src\\stm32f4xx_gpio.c 0x00000000   Number         0  stm32f4xx_gpio.o ABSOLUTE
    ..\\..\\..\\..\\Libraries\\STM32F4xx_StdPeriph_Driver\\src\\stm32f4xx_i2c.c 0x00000000   Number         0  stm32f4xx_i2c.o ABSOLUTE
    ..\\..\\..\\..\\Libraries\\STM32F4xx_StdPeriph_Driver\\src\\stm32f4xx_rcc.c 0x00000000   Number         0  stm32f4xx_rcc.o ABSOLUTE
    ..\\..\\..\\..\\Libraries\\STM32F4xx_StdPeriph_Driver\\src\\stm32f4xx_sdio.c 0x00000000   Number         0  stm32f4xx_sdio.o ABSOLUTE
    ..\\..\\..\\..\\Libraries\\STM32F4xx_StdPeriph_Driver\\src\\stm32f4xx_syscfg.c 0x00000000   Number         0  stm32f4xx_syscfg.o ABSOLUTE
    ..\\..\\..\\..\\Libraries\\STM32F4xx_StdPeriph_Driver\\src\\stm32f4xx_usart.c 0x00000000   Number         0  stm32f4xx_usart.o ABSOLUTE
    ..\\..\\..\\..\\Utilities\\STM32_EVAL\\STM3240_41_G_EVAL\\stm324xg_eval.c 0x00000000   Number         0  stm324xg_eval.o ABSOLUTE
    ..\\..\\..\\..\\Utilities\\STM32_EVAL\\STM3240_41_G_EVAL\\stm324xg_eval_lcd.c 0x00000000   Number         0  stm324xg_eval_lcd.o ABSOLUTE
    ..\\..\\..\\..\\Utilities\\Third_Party\\FreeRTOS_v6.1.0\\portable\\MDK-ARM\\ARM_CM3\\port.c 0x00000000   Number         0  port.o ABSOLUTE
    ..\\..\\..\\..\\Utilities\\Third_Party\\lwip_v1.3.2\\port\\STM32F4x7\\FreeRTOS\\ethernetif.c 0x00000000   Number         0  ethernetif.o ABSOLUTE
    ..\\src\\main.c                          0x00000000   Number         0  main.o ABSOLUTE
    ..\\src\\netconf.c                       0x00000000   Number         0  netconf.o ABSOLUTE
    ..\\src\\serial_debug.c                  0x00000000   Number         0  serial_debug.o ABSOLUTE
    ..\\src\\stm32f4x7_eth_bsp.c             0x00000000   Number         0  stm32f4x7_eth_bsp.o ABSOLUTE
    ..\\src\\stm32f4xx_it.c                  0x00000000   Number         0  stm32f4xx_it.o ABSOLUTE
    ..\\src\\system_stm32f4xx.c              0x00000000   Number         0  system_stm32f4xx.o ABSOLUTE
    ..\src\main.c                            0x00000000   Number         0  main.o ABSOLUTE
    ..\src\netconf.c                         0x00000000   Number         0  netconf.o ABSOLUTE
    ..\src\serial_debug.c                    0x00000000   Number         0  serial_debug.o ABSOLUTE
    ..\src\stm32f4x7_eth_bsp.c               0x00000000   Number         0  stm32f4x7_eth_bsp.o ABSOLUTE
    ..\src\stm32f4xx_it.c                    0x00000000   Number         0  stm32f4xx_it.o ABSOLUTE
    ..\src\system_stm32f4xx.c                0x00000000   Number         0  system_stm32f4xx.o ABSOLUTE
    ..\src\tcpecho.c                         0x00000000   Number         0  tcpecho.o ABSOLUTE
    ..\src\udpecho.c                         0x00000000   Number         0  udpecho.o ABSOLUTE
    cdcmple.s                                0x00000000   Number         0  cdcmple.o ABSOLUTE
    cdrcmple.s                               0x00000000   Number         0  cdrcmple.o ABSOLUTE
    dc.s                                     0x00000000   Number         0  dc.o ABSOLUTE
    handlers.s                               0x00000000   Number         0  handlers.o ABSOLUTE
    init.s                                   0x00000000   Number         0  init.o ABSOLUTE
    startup_stm32f4xx.s                      0x00000000   Number         0  startup_stm32f4xx.o ABSOLUTE
    RESET                                    0x08000000   Section      392  startup_stm32f4xx.o(RESET)
    .ARM.Collect$$$$00000000                 0x08000188   Section        0  entry.o(.ARM.Collect$$$$00000000)
    .ARM.Collect$$$$00000001                 0x08000188   Section        4  entry2.o(.ARM.Collect$$$$00000001)
    .ARM.Collect$$$$00000004                 0x0800018c   Section        4  entry5.o(.ARM.Collect$$$$00000004)
    .ARM.Collect$$$$00000008                 0x08000190   Section        0  entry7b.o(.ARM.Collect$$$$00000008)
    .ARM.Collect$$$$00000009                 0x08000190   Section        8  entry8.o(.ARM.Collect$$$$00000009)
    .ARM.Collect$$$$00002712                 0x08000198   Section        4  entry2.o(.ARM.Collect$$$$00002712)
    __lit__00000000                          0x08000198   Data           4  entry2.o(.ARM.Collect$$$$00002712)
    .emb_text                                0x0800019c   Section      136  port.o(.emb_text)
    .text                                    0x08000224   Section       36  startup_stm32f4xx.o(.text)
    .text                                    0x08000248   Section        0  memcpya.o(.text)
    .text                                    0x0800026c   Section        0  memseta.o(.text)
    .text                                    0x08000292   Section        0  strncpy.o(.text)
    .text                                    0x080002aa   Section        0  memcmp.o(.text)
    .text                                    0x080002c4   Section        0  uidiv.o(.text)
    .text                                    0x080002f0   Section       36  init.o(.text)
    .text                                    0x08000314   Section        0  semi.o(.text)
    .text                                    0x08000314   Section        0  __dczerorl2.o(.text)
    .text                                    0x08000314   Section        0  iusesemip.o(.text)
    i.BusFault_Handler                       0x08000370   Section        0  stm32f4xx_it.o(i.BusFault_Handler)
    i.DebugMon_Handler                       0x08000372   Section        0  stm32f4xx_it.o(i.DebugMon_Handler)
    i.ETH_BSP_Config                         0x08000374   Section        0  stm32f4x7_eth_bsp.o(i.ETH_BSP_Config)
    i.ETH_DMAClearITPendingBit               0x08000414   Section        0  stm32f4x7_eth.o(i.ETH_DMAClearITPendingBit)
    i.ETH_DMAITConfig                        0x08000420   Section        0  stm32f4x7_eth.o(i.ETH_DMAITConfig)
    i.ETH_DMAReceptionCmd                    0x08000438   Section        0  stm32f4x7_eth.o(i.ETH_DMAReceptionCmd)
    i.ETH_DMARxDescChainInit                 0x08000454   Section        0  stm32f4x7_eth.o(i.ETH_DMARxDescChainInit)
    i.ETH_DMARxDescReceiveITConfig           0x080004ac   Section        0  stm32f4x7_eth.o(i.ETH_DMARxDescReceiveITConfig)
    i.ETH_DMATransmissionCmd                 0x080004c0   Section        0  stm32f4x7_eth.o(i.ETH_DMATransmissionCmd)
    i.ETH_DMATxDescChainInit                 0x080004dc   Section        0  stm32f4x7_eth.o(i.ETH_DMATxDescChainInit)
    i.ETH_DMATxDescChecksumInsertionConfig   0x08000524   Section        0  stm32f4x7_eth.o(i.ETH_DMATxDescChecksumInsertionConfig)
    i.ETH_DeInit                             0x0800052c   Section        0  stm32f4x7_eth.o(i.ETH_DeInit)
    i.ETH_Delay                              0x08000544   Section        0  stm32f4x7_eth.o(i.ETH_Delay)
    ETH_Delay                                0x08000545   Thumb Code    10  stm32f4x7_eth.o(i.ETH_Delay)
    i.ETH_FlushTransmitFIFO                  0x08000550   Section        0  stm32f4x7_eth.o(i.ETH_FlushTransmitFIFO)
    i.ETH_GPIO_Config                        0x08000560   Section        0  stm32f4x7_eth_bsp.o(i.ETH_GPIO_Config)
    ETH_GPIO_Config                          0x08000561   Thumb Code   194  stm32f4x7_eth_bsp.o(i.ETH_GPIO_Config)
    i.ETH_GetDMAFlagStatus                   0x08000630   Section        0  stm32f4x7_eth.o(i.ETH_GetDMAFlagStatus)
    i.ETH_GetSoftwareResetStatus             0x08000644   Section        0  stm32f4x7_eth.o(i.ETH_GetSoftwareResetStatus)
    i.ETH_Get_Received_Frame_interrupt       0x08000658   Section        0  stm32f4x7_eth.o(i.ETH_Get_Received_Frame_interrupt)
    i.ETH_IRQHandler                         0x080006e4   Section        0  stm32f4xx_it.o(i.ETH_IRQHandler)
    i.ETH_Init                               0x08000720   Section        0  stm32f4x7_eth.o(i.ETH_Init)
    i.ETH_MACAddressConfig                   0x08000958   Section        0  stm32f4x7_eth.o(i.ETH_MACAddressConfig)
    i.ETH_MACDMA_Config                      0x08000974   Section        0  stm32f4x7_eth_bsp.o(i.ETH_MACDMA_Config)
    ETH_MACDMA_Config                        0x08000975   Thumb Code   124  stm32f4x7_eth_bsp.o(i.ETH_MACDMA_Config)
    i.ETH_MACReceptionCmd                    0x080009f8   Section        0  stm32f4x7_eth.o(i.ETH_MACReceptionCmd)
    i.ETH_MACTransmissionCmd                 0x08000a14   Section        0  stm32f4x7_eth.o(i.ETH_MACTransmissionCmd)
    i.ETH_Prepare_Transmit_Descriptors       0x08000a30   Section        0  stm32f4x7_eth.o(i.ETH_Prepare_Transmit_Descriptors)
    i.ETH_ReadPHYRegister                    0x08000adc   Section        0  stm32f4x7_eth.o(i.ETH_ReadPHYRegister)
    i.ETH_SoftwareReset                      0x08000b2c   Section        0  stm32f4x7_eth.o(i.ETH_SoftwareReset)
    i.ETH_Start                              0x08000b3c   Section        0  stm32f4x7_eth.o(i.ETH_Start)
    i.ETH_StructInit                         0x08000b5e   Section        0  stm32f4x7_eth.o(i.ETH_StructInit)
    i.ETH_WritePHYRegister                   0x08000be8   Section        0  stm32f4x7_eth.o(i.ETH_WritePHYRegister)
    i.EXTI15_10_IRQHandler                   0x08000c34   Section        0  stm32f4xx_it.o(i.EXTI15_10_IRQHandler)
    i.EXTI_ClearITPendingBit                 0x08000c58   Section        0  stm32f4xx_exti.o(i.EXTI_ClearITPendingBit)
    i.EXTI_GetITStatus                       0x08000c64   Section        0  stm32f4xx_exti.o(i.EXTI_GetITStatus)
    i.EXTI_Init                              0x08000c84   Section        0  stm32f4xx_exti.o(i.EXTI_Init)
    i.Eth_Link_EXTIConfig                    0x08000cf4   Section        0  stm32f4x7_eth_bsp.o(i.Eth_Link_EXTIConfig)
    i.Eth_Link_ITHandler                     0x08000d68   Section        0  stm32f4x7_eth_bsp.o(i.Eth_Link_ITHandler)
    i.Eth_Link_PHYITConfig                   0x08000e24   Section        0  stm32f4x7_eth_bsp.o(i.Eth_Link_PHYITConfig)
    i.FSMC_NORSRAMCmd                        0x08000e5c   Section        0  stm32f4xx_fsmc.o(i.FSMC_NORSRAMCmd)
    i.FSMC_NORSRAMInit                       0x08000e7c   Section        0  stm32f4xx_fsmc.o(i.FSMC_NORSRAMInit)
    i.GPIO_Init                              0x08000f3c   Section        0  stm32f4xx_gpio.o(i.GPIO_Init)
    i.GPIO_PinAFConfig                       0x08000fb8   Section        0  stm32f4xx_gpio.o(i.GPIO_PinAFConfig)
    i.HardFault_Handler                      0x08000fd8   Section        0  stm32f4xx_it.o(i.HardFault_Handler)
    i.LCD_Clear                              0x08000fdc   Section        0  stm324xg_eval_lcd.o(i.LCD_Clear)
    i.LCD_CtrlLinesConfig                    0x08001008   Section        0  stm324xg_eval_lcd.o(i.LCD_CtrlLinesConfig)
    i.LCD_DisplayChar                        0x08001148   Section        0  stm324xg_eval_lcd.o(i.LCD_DisplayChar)
    i.LCD_DisplayStringLine                  0x08001168   Section        0  stm324xg_eval_lcd.o(i.LCD_DisplayStringLine)
    i.LCD_DrawChar                           0x080011a0   Section        0  stm324xg_eval_lcd.o(i.LCD_DrawChar)
    i.LCD_FSMCConfig                         0x08001220   Section        0  stm324xg_eval_lcd.o(i.LCD_FSMCConfig)
    i.LCD_GetFont                            0x08001270   Section        0  stm324xg_eval_lcd.o(i.LCD_GetFont)
    i.LCD_LED_Init                           0x0800127c   Section        0  main.o(i.LCD_LED_Init)
    i.LCD_ReadReg                            0x0800134c   Section        0  stm324xg_eval_lcd.o(i.LCD_ReadReg)
    i.LCD_SetBackColor                       0x0800135c   Section        0  stm324xg_eval_lcd.o(i.LCD_SetBackColor)
    i.LCD_SetCursor                          0x08001368   Section        0  stm324xg_eval_lcd.o(i.LCD_SetCursor)
    i.LCD_SetTextColor                       0x08001380   Section        0  stm324xg_eval_lcd.o(i.LCD_SetTextColor)
    i.LCD_WriteReg                           0x0800138c   Section        0  stm324xg_eval_lcd.o(i.LCD_WriteReg)
    i.LwIP_Init                              0x0800139c   Section        0  netconf.o(i.LwIP_Init)
    i.MemManage_Handler                      0x08001458   Section        0  stm32f4xx_it.o(i.MemManage_Handler)
    i.NMI_Handler                            0x0800145a   Section        0  stm32f4xx_it.o(i.NMI_Handler)
    i.NVIC_Init                              0x0800145c   Section        0  misc.o(i.NVIC_Init)
    i.NVIC_PriorityGroupConfig               0x080014c0   Section        0  misc.o(i.NVIC_PriorityGroupConfig)
    i.RCC_AHB1PeriphClockCmd                 0x080014d4   Section        0  stm32f4xx_rcc.o(i.RCC_AHB1PeriphClockCmd)
    i.RCC_AHB1PeriphResetCmd                 0x080014ec   Section        0  stm32f4xx_rcc.o(i.RCC_AHB1PeriphResetCmd)
    i.RCC_AHB3PeriphClockCmd                 0x08001504   Section        0  stm32f4xx_rcc.o(i.RCC_AHB3PeriphClockCmd)
    i.RCC_APB2PeriphClockCmd                 0x0800151c   Section        0  stm32f4xx_rcc.o(i.RCC_APB2PeriphClockCmd)
    i.RCC_GetClocksFreq                      0x08001534   Section        0  stm32f4xx_rcc.o(i.RCC_GetClocksFreq)
    i.RCC_MCO1Config                         0x080015c8   Section        0  stm32f4xx_rcc.o(i.RCC_MCO1Config)
    i.STM324xG_LCD_Init                      0x080015dc   Section        0  stm324xg_eval_lcd.o(i.STM324xG_LCD_Init)
    i.STM_EVAL_LEDInit                       0x08001874   Section        0  stm324xg_eval.o(i.STM_EVAL_LEDInit)
    i.STM_EVAL_LEDToggle                     0x080018bc   Section        0  stm324xg_eval.o(i.STM_EVAL_LEDToggle)
    i.SYSCFG_ETH_MediaInterfaceConfig        0x080018d8   Section        0  stm32f4xx_syscfg.o(i.SYSCFG_ETH_MediaInterfaceConfig)
    i.SYSCFG_EXTILineConfig                  0x080018e4   Section        0  stm32f4xx_syscfg.o(i.SYSCFG_EXTILineConfig)
    i.SetSysClock                            0x0800190c   Section        0  system_stm32f4xx.o(i.SetSysClock)
    SetSysClock                              0x0800190d   Thumb Code   140  system_stm32f4xx.o(i.SetSysClock)
    i.SysTick_Handler                        0x080019a8   Section        0  stm32f4xx_it.o(i.SysTick_Handler)
    i.SystemInit                             0x080019ac   Section        0  system_stm32f4xx.o(i.SystemInit)
    i.ToggleLed4                             0x080019fc   Section        0  main.o(i.ToggleLed4)
    i.UsageFault_Handler                     0x08001a20   Section        0  stm32f4xx_it.o(i.UsageFault_Handler)
    i.__0printf$1                            0x08001a24   Section        0  printf1.o(i.__0printf$1)
    i.__0sprintf$1                           0x08001a44   Section        0  printf1.o(i.__0sprintf$1)
    i.__scatterload_copy                     0x08001a6c   Section       14  handlers.o(i.__scatterload_copy)
    i.__scatterload_null                     0x08001a7a   Section        2  handlers.o(i.__scatterload_null)
    i.__scatterload_zeroinit                 0x08001a7c   Section       14  handlers.o(i.__scatterload_zeroinit)
    i._printf_core                           0x08001a8c   Section        0  printf1.o(i._printf_core)
    _printf_core                             0x08001a8d   Thumb Code   332  printf1.o(i._printf_core)
    i._sputc                                 0x08001bdc   Section        0  printf1.o(i._sputc)
    _sputc                                   0x08001bdd   Thumb Code    10  printf1.o(i._sputc)
    i.accept_function                        0x08001be6   Section        0  api_msg.o(i.accept_function)
    accept_function                          0x08001be7   Thumb Code    88  api_msg.o(i.accept_function)
    i.arp_timer                              0x08001c40   Section        0  tcpip.o(i.arp_timer)
    arp_timer                                0x08001c41   Thumb Code    22  tcpip.o(i.arp_timer)
    i.arp_timer                              0x08001c5c   Section        0  ethernetif.o(i.arp_timer)
    arp_timer                                0x08001c5d   Thumb Code    22  ethernetif.o(i.arp_timer)
    i.autoip_arp_announce                    0x08001c78   Section        0  autoip.o(i.autoip_arp_announce)
    autoip_arp_announce                      0x08001c79   Thumb Code    32  autoip.o(i.autoip_arp_announce)
    i.autoip_arp_reply                       0x08001ca0   Section        0  autoip.o(i.autoip_arp_reply)
    i.autoip_init                            0x08001d3a   Section        0  autoip.o(i.autoip_init)
    i.autoip_start                           0x08001d3c   Section        0  autoip.o(i.autoip_start)
    i.autoip_start_probing                   0x08001dd4   Section        0  autoip.o(i.autoip_start_probing)
    autoip_start_probing                     0x08001dd5   Thumb Code    68  autoip.o(i.autoip_start_probing)
    i.autoip_timer                           0x08001e18   Section        0  tcpip.o(i.autoip_timer)
    autoip_timer                             0x08001e19   Thumb Code    20  tcpip.o(i.autoip_timer)
    i.autoip_tmr                             0x08001e30   Section        0  autoip.o(i.autoip_tmr)
    i.delay_ms                               0x08001f50   Section        0  stm324xg_eval_lcd.o(i.delay_ms)
    i.dhcp_arp_reply                         0x08001f6c   Section        0  dhcp.o(i.dhcp_arp_reply)
    i.dhcp_bind                              0x08001f8c   Section        0  dhcp.o(i.dhcp_bind)
    dhcp_bind                                0x08001f8d   Thumb Code   210  dhcp.o(i.dhcp_bind)
    i.dhcp_check                             0x08002064   Section        0  dhcp.o(i.dhcp_check)
    dhcp_check                               0x08002065   Thumb Code    38  dhcp.o(i.dhcp_check)
    i.dhcp_coarse_tmr                        0x0800208c   Section        0  dhcp.o(i.dhcp_coarse_tmr)
    i.dhcp_create_request                    0x080020ec   Section        0  dhcp.o(i.dhcp_create_request)
    dhcp_create_request                      0x080020ed   Thumb Code   252  dhcp.o(i.dhcp_create_request)
    i.dhcp_decline                           0x080021f0   Section        0  dhcp.o(i.dhcp_decline)
    dhcp_decline                             0x080021f1   Thumb Code   118  dhcp.o(i.dhcp_decline)
    i.dhcp_delete_request                    0x0800226c   Section        0  dhcp.o(i.dhcp_delete_request)
    dhcp_delete_request                      0x0800226d   Thumb Code    28  dhcp.o(i.dhcp_delete_request)
    i.dhcp_discover                          0x08002288   Section        0  dhcp.o(i.dhcp_discover)
    dhcp_discover                            0x08002289   Thumb Code   192  dhcp.o(i.dhcp_discover)
    i.dhcp_fine_tmr                          0x08002350   Section        0  dhcp.o(i.dhcp_fine_tmr)
    i.dhcp_option                            0x08002384   Section        0  dhcp.o(i.dhcp_option)
    dhcp_option                              0x08002385   Thumb Code    32  dhcp.o(i.dhcp_option)
    i.dhcp_option_byte                       0x080023a4   Section        0  dhcp.o(i.dhcp_option_byte)
    dhcp_option_byte                         0x080023a5   Thumb Code    16  dhcp.o(i.dhcp_option_byte)
    i.dhcp_option_long                       0x080023b4   Section        0  dhcp.o(i.dhcp_option_long)
    dhcp_option_long                         0x080023b5   Thumb Code    66  dhcp.o(i.dhcp_option_long)
    i.dhcp_option_short                      0x080023f6   Section        0  dhcp.o(i.dhcp_option_short)
    dhcp_option_short                        0x080023f7   Thumb Code    34  dhcp.o(i.dhcp_option_short)
    i.dhcp_option_trailer                    0x08002418   Section        0  dhcp.o(i.dhcp_option_trailer)
    dhcp_option_trailer                      0x08002419   Thumb Code    48  dhcp.o(i.dhcp_option_trailer)
    i.dhcp_rebind                            0x08002448   Section        0  dhcp.o(i.dhcp_rebind)
    dhcp_rebind                              0x08002449   Thumb Code   142  dhcp.o(i.dhcp_rebind)
    i.dhcp_reboot                            0x080024dc   Section        0  dhcp.o(i.dhcp_reboot)
    dhcp_reboot                              0x080024dd   Thumb Code   168  dhcp.o(i.dhcp_reboot)
    i.dhcp_release                           0x08002588   Section        0  dhcp.o(i.dhcp_release)
    i.dhcp_renew                             0x0800263c   Section        0  dhcp.o(i.dhcp_renew)
    i.dhcp_select                            0x080026cc   Section        0  dhcp.o(i.dhcp_select)
    dhcp_select                              0x080026cd   Thumb Code   234  dhcp.o(i.dhcp_select)
    i.dhcp_set_state                         0x080027bc   Section        0  dhcp.o(i.dhcp_set_state)
    dhcp_set_state                           0x080027bd   Thumb Code    14  dhcp.o(i.dhcp_set_state)
    i.dhcp_timeout                           0x080027ca   Section        0  dhcp.o(i.dhcp_timeout)
    dhcp_timeout                             0x080027cb   Thumb Code   136  dhcp.o(i.dhcp_timeout)
    i.dhcp_timer_coarse                      0x08002854   Section        0  tcpip.o(i.dhcp_timer_coarse)
    dhcp_timer_coarse                        0x08002855   Thumb Code    22  tcpip.o(i.dhcp_timer_coarse)
    i.dhcp_timer_fine                        0x08002870   Section        0  tcpip.o(i.dhcp_timer_fine)
    dhcp_timer_fine                          0x08002871   Thumb Code    22  tcpip.o(i.dhcp_timer_fine)
    i.do_bind                                0x0800288c   Section        0  api_msg.o(i.do_bind)
    i.do_close                               0x080028e8   Section        0  api_msg.o(i.do_close)
    i.do_close_internal                      0x0800290c   Section        0  api_msg.o(i.do_close_internal)
    do_close_internal                        0x0800290d   Thumb Code   156  api_msg.o(i.do_close_internal)
    i.do_connect                             0x080029b4   Section        0  api_msg.o(i.do_connect)
    i.do_connected                           0x08002a20   Section        0  api_msg.o(i.do_connected)
    do_connected                             0x08002a21   Thumb Code    44  api_msg.o(i.do_connected)
    i.do_delconn                             0x08002a4c   Section        0  api_msg.o(i.do_delconn)
    i.do_listen                              0x08002ab4   Section        0  api_msg.o(i.do_listen)
    i.do_newconn                             0x08002b48   Section        0  api_msg.o(i.do_newconn)
    i.do_recv                                0x08002b64   Section        0  api_msg.o(i.do_recv)
    i.do_send                                0x08002b92   Section        0  api_msg.o(i.do_send)
    i.do_write                               0x08002bf4   Section        0  api_msg.o(i.do_write)
    i.do_writemore                           0x08002c2a   Section        0  api_msg.o(i.do_writemore)
    do_writemore                             0x08002c2b   Thumb Code   184  api_msg.o(i.do_writemore)
    i.err_tcp                                0x08002ce2   Section        0  api_msg.o(i.err_tcp)
    err_tcp                                  0x08002ce3   Thumb Code   100  api_msg.o(i.err_tcp)
    i.etharp_arp_input                       0x08002d48   Section        0  etharp.o(i.etharp_arp_input)
    i.etharp_output                          0x08002e4c   Section        0  etharp.o(i.etharp_output)
    i.etharp_query                           0x08002f04   Section        0  etharp.o(i.etharp_query)
    i.etharp_raw                             0x08002f90   Section        0  etharp.o(i.etharp_raw)
    i.etharp_request                         0x08003048   Section        0  etharp.o(i.etharp_request)
    i.etharp_send_ip                         0x0800306c   Section        0  etharp.o(i.etharp_send_ip)
    etharp_send_ip                           0x0800306d   Thumb Code    54  etharp.o(i.etharp_send_ip)
    i.etharp_tmr                             0x080030a4   Section        0  etharp.o(i.etharp_tmr)
    i.ethernet_input                         0x080030e0   Section        0  etharp.o(i.ethernet_input)
    i.ethernetif_init                        0x0800312c   Section        0  ethernetif.o(i.ethernetif_init)
    i.ethernetif_input                       0x08003164   Section        0  ethernetif.o(i.ethernetif_input)
    ethernetif_input                         0x08003165   Thumb Code    44  ethernetif.o(i.ethernetif_input)
    i.find_entry                             0x08003194   Section        0  etharp.o(i.find_entry)
    find_entry                               0x08003195   Thumb Code   224  etharp.o(i.find_entry)
    i.fputc                                  0x0800327c   Section        0  fputc.o(i.fputc)
    i.htonl                                  0x0800328e   Section        0  inet.o(i.htonl)
    i.htons                                  0x08003292   Section        0  inet.o(i.htons)
    i.icmp_dest_unreach                      0x08003296   Section        0  icmp.o(i.icmp_dest_unreach)
    i.icmp_input                             0x080032fc   Section        0  icmp.o(i.icmp_input)
    i.inet_chksum                            0x08003410   Section        0  inet_chksum.o(i.inet_chksum)
    i.inet_chksum_pbuf                       0x0800341c   Section        0  inet_chksum.o(i.inet_chksum_pbuf)
    i.ip_addr_isbroadcast                    0x08003464   Section        0  ip_addr.o(i.ip_addr_isbroadcast)
    i.ip_input                               0x08003494   Section        0  ip.o(i.ip_input)
    i.ip_output                              0x08003610   Section        0  ip.o(i.ip_output)
    i.ip_output_if                           0x08003644   Section        0  ip.o(i.ip_output_if)
    i.ip_route                               0x080036f4   Section        0  ip.o(i.ip_route)
    i.low_level_init                         0x0800373c   Section        0  ethernetif.o(i.low_level_init)
    low_level_init                           0x0800373d   Thumb Code   170  ethernetif.o(i.low_level_init)
    i.low_level_input                        0x08003808   Section        0  ethernetif.o(i.low_level_input)
    low_level_input                          0x08003809   Thumb Code   126  ethernetif.o(i.low_level_input)
    i.low_level_output                       0x08003890   Section        0  ethernetif.o(i.low_level_output)
    low_level_output                         0x08003891   Thumb Code   102  ethernetif.o(i.low_level_output)
    i.lwip_init                              0x08003900   Section        0  init.o(i.lwip_init)
    i.lwip_standard_chksum                   0x08003916   Section        0  inet_chksum.o(i.lwip_standard_chksum)
    lwip_standard_chksum                     0x08003917   Thumb Code    58  inet_chksum.o(i.lwip_standard_chksum)
    i.main                                   0x08003950   Section        0  main.o(i.main)
    i.mem_free                               0x08003990   Section        0  mem.o(i.mem_free)
    i.mem_init                               0x080039d0   Section        0  mem.o(i.mem_init)
    i.mem_malloc                             0x08003a0c   Section        0  mem.o(i.mem_malloc)
    i.mem_realloc                            0x08003acc   Section        0  mem.o(i.mem_realloc)
    i.memp_free                              0x08003ba8   Section        0  memp.o(i.memp_free)
    i.memp_init                              0x08003bc0   Section        0  memp.o(i.memp_init)
    i.memp_malloc                            0x08003c18   Section        0  memp.o(i.memp_malloc)
    i.netbuf_data                            0x08003c38   Section        0  netbuf.o(i.netbuf_data)
    i.netbuf_delete                          0x08003c5e   Section        0  netbuf.o(i.netbuf_delete)
    i.netbuf_next                            0x08003c80   Section        0  netbuf.o(i.netbuf_next)
    i.netconn_accept                         0x08003c9e   Section        0  api_lib.o(i.netconn_accept)
    i.netconn_alloc                          0x08003cc6   Section        0  api_msg.o(i.netconn_alloc)
    i.netconn_bind                           0x08003d3c   Section        0  api_lib.o(i.netconn_bind)
    i.netconn_close                          0x08003d68   Section        0  api_lib.o(i.netconn_close)
    i.netconn_connect                        0x08003d90   Section        0  api_lib.o(i.netconn_connect)
    i.netconn_delete                         0x08003dbc   Section        0  api_lib.o(i.netconn_delete)
    i.netconn_free                           0x08003de4   Section        0  api_msg.o(i.netconn_free)
    i.netconn_listen_with_backlog            0x08003e4c   Section        0  api_lib.o(i.netconn_listen_with_backlog)
    i.netconn_new_with_proto_and_callback    0x08003e74   Section        0  api_lib.o(i.netconn_new_with_proto_and_callback)
    i.netconn_recv                           0x08003ebc   Section        0  api_lib.o(i.netconn_recv)
    i.netconn_send                           0x08003f8c   Section        0  api_lib.o(i.netconn_send)
    i.netconn_write                          0x08003fb4   Section        0  api_lib.o(i.netconn_write)
    i.netif_add                              0x08003ff0   Section        0  netif.o(i.netif_add)
    i.netif_is_up                            0x0800403c   Section        0  netif.o(i.netif_is_up)
    i.netif_set_addr                         0x08004046   Section        0  netif.o(i.netif_set_addr)
    i.netif_set_default                      0x08004068   Section        0  netif.o(i.netif_set_default)
    i.netif_set_down                         0x08004074   Section        0  netif.o(i.netif_set_down)
    i.netif_set_gw                           0x08004086   Section        0  netif.o(i.netif_set_gw)
    i.netif_set_ipaddr                       0x08004090   Section        0  netif.o(i.netif_set_ipaddr)
    i.netif_set_netmask                      0x080040f8   Section        0  netif.o(i.netif_set_netmask)
    i.netif_set_up                           0x08004100   Section        0  netif.o(i.netif_set_up)
    i.ntohl                                  0x0800411c   Section        0  inet.o(i.ntohl)
    i.ntohs                                  0x08004120   Section        0  inet.o(i.ntohs)
    i.pbuf_alloc                             0x08004124   Section        0  pbuf.o(i.pbuf_alloc)
    i.pbuf_cat                               0x08004234   Section        0  pbuf.o(i.pbuf_cat)
    i.pbuf_chain                             0x0800425c   Section        0  pbuf.o(i.pbuf_chain)
    i.pbuf_clen                              0x0800426e   Section        0  pbuf.o(i.pbuf_clen)
    i.pbuf_copy                              0x08004280   Section        0  pbuf.o(i.pbuf_copy)
    i.pbuf_free                              0x08004310   Section        0  pbuf.o(i.pbuf_free)
    i.pbuf_header                            0x08004354   Section        0  pbuf.o(i.pbuf_header)
    i.pbuf_realloc                           0x080043b4   Section        0  pbuf.o(i.pbuf_realloc)
    i.pbuf_ref                               0x08004404   Section        0  pbuf.o(i.pbuf_ref)
    i.pcb_new                                0x08004410   Section        0  api_msg.o(i.pcb_new)
    pcb_new                                  0x08004411   Thumb Code   136  api_msg.o(i.pcb_new)
    i.plug_holes                             0x080044a0   Section        0  mem.o(i.plug_holes)
    plug_holes                               0x080044a1   Thumb Code    78  mem.o(i.plug_holes)
    i.poll_tcp                               0x080044f4   Section        0  api_msg.o(i.poll_tcp)
    poll_tcp                                 0x080044f5   Thumb Code    28  api_msg.o(i.poll_tcp)
    i.prvCheckTasksWaitingTermination        0x08004510   Section        0  tasks.o(i.prvCheckTasksWaitingTermination)
    prvCheckTasksWaitingTermination          0x08004511   Thumb Code    86  tasks.o(i.prvCheckTasksWaitingTermination)
    i.prvCopyDataFromQueue                   0x08004570   Section        0  queue.o(i.prvCopyDataFromQueue)
    prvCopyDataFromQueue                     0x08004571   Thumb Code    42  queue.o(i.prvCopyDataFromQueue)
    i.prvCopyDataToQueue                     0x0800459a   Section        0  queue.o(i.prvCopyDataToQueue)
    prvCopyDataToQueue                       0x0800459b   Thumb Code    90  queue.o(i.prvCopyDataToQueue)
    i.prvIdleTask                            0x080045f4   Section        0  tasks.o(i.prvIdleTask)
    prvIdleTask                              0x080045f5   Thumb Code    20  tasks.o(i.prvIdleTask)
    i.prvUnlockQueue                         0x0800460c   Section        0  queue.o(i.prvUnlockQueue)
    prvUnlockQueue                           0x0800460d   Thumb Code   100  queue.o(i.prvUnlockQueue)
    i.pvPortMalloc                           0x08004670   Section        0  heap_2.o(i.pvPortMalloc)
    i.pxPortInitialiseStack                  0x08004720   Section        0  port.o(i.pxPortInitialiseStack)
    i.raw_bind                               0x0800473c   Section        0  raw.o(i.raw_bind)
    i.raw_connect                            0x08004746   Section        0  raw.o(i.raw_connect)
    i.raw_input                              0x08004750   Section        0  raw.o(i.raw_input)
    i.raw_new                                0x080047bc   Section        0  raw.o(i.raw_new)
    i.raw_recv                               0x080047e8   Section        0  raw.o(i.raw_recv)
    i.raw_remove                             0x080047f0   Section        0  raw.o(i.raw_remove)
    i.raw_send                               0x0800481c   Section        0  raw.o(i.raw_send)
    i.raw_sendto                             0x08004822   Section        0  raw.o(i.raw_sendto)
    i.recv_raw                               0x080048ac   Section        0  api_msg.o(i.recv_raw)
    recv_raw                                 0x080048ad   Thumb Code   114  api_msg.o(i.recv_raw)
    i.recv_tcp                               0x0800491e   Section        0  api_msg.o(i.recv_tcp)
    recv_tcp                                 0x0800491f   Thumb Code    64  api_msg.o(i.recv_tcp)
    i.recv_udp                               0x0800495e   Section        0  api_msg.o(i.recv_udp)
    recv_udp                                 0x0800495f   Thumb Code   104  api_msg.o(i.recv_udp)
    i.sent_tcp                               0x080049c6   Section        0  api_msg.o(i.sent_tcp)
    sent_tcp                                 0x080049c7   Thumb Code    66  api_msg.o(i.sent_tcp)
    i.setup_tcp                              0x08004a08   Section        0  api_msg.o(i.setup_tcp)
    setup_tcp                                0x08004a09   Thumb Code    50  api_msg.o(i.setup_tcp)
    i.sys_arch_mbox_fetch                    0x08004a4c   Section        0  sys_arch.o(i.sys_arch_mbox_fetch)
    i.sys_arch_mbox_tryfetch                 0x08004a98   Section        0  sys_arch.o(i.sys_arch_mbox_tryfetch)
    i.sys_arch_sem_wait                      0x08004ab4   Section        0  sys_arch.o(i.sys_arch_sem_wait)
    i.sys_arch_timeouts                      0x08004af8   Section        0  sys_arch.o(i.sys_arch_timeouts)
    i.sys_init                               0x08004b28   Section        0  sys_arch.o(i.sys_init)
    i.sys_mbox_fetch                         0x08004b50   Section        0  sys.o(i.sys_mbox_fetch)
    i.sys_mbox_free                          0x08004bb0   Section        0  sys_arch.o(i.sys_mbox_free)
    i.sys_mbox_new                           0x08004bc2   Section        0  sys_arch.o(i.sys_mbox_new)
    i.sys_mbox_post                          0x08004bca   Section        0  sys_arch.o(i.sys_mbox_post)
    i.sys_mbox_trypost                       0x08004be4   Section        0  sys_arch.o(i.sys_mbox_trypost)
    i.sys_sem_free                           0x08004bfe   Section        0  sys_arch.o(i.sys_sem_free)
    i.sys_sem_new                            0x08004c02   Section        0  sys_arch.o(i.sys_sem_new)
    i.sys_sem_signal                         0x08004c34   Section        0  sys_arch.o(i.sys_sem_signal)
    i.sys_thread_new                         0x08004c40   Section        0  sys_arch.o(i.sys_thread_new)
    i.sys_timeout                            0x08004c90   Section        0  sys.o(i.sys_timeout)
    i.sys_untimeout                          0x08004cf2   Section        0  sys.o(i.sys_untimeout)
    i.tcp_abandon                            0x08004d40   Section        0  tcp.o(i.tcp_abandon)
    i.tcp_accept                             0x08004dd4   Section        0  tcp.o(i.tcp_accept)
    i.tcp_accept_null                        0x08004dd8   Section        0  tcp.o(i.tcp_accept_null)
    tcp_accept_null                          0x08004dd9   Thumb Code     6  tcp.o(i.tcp_accept_null)
    i.tcp_alloc                              0x08004de0   Section        0  tcp.o(i.tcp_alloc)
    i.tcp_arg                                0x08004ed4   Section        0  tcp.o(i.tcp_arg)
    i.tcp_bind                               0x08004ed8   Section        0  tcp.o(i.tcp_bind)
    i.tcp_close                              0x08004f98   Section        0  tcp.o(i.tcp_close)
    i.tcp_connect                            0x08005038   Section        0  tcp.o(i.tcp_connect)
    i.tcp_eff_send_mss                       0x080050f8   Section        0  tcp.o(i.tcp_eff_send_mss)
    i.tcp_enqueue                            0x08005118   Section        0  tcp_out.o(i.tcp_enqueue)
    i.tcp_err                                0x0800545a   Section        0  tcp.o(i.tcp_err)
    i.tcp_fasttmr                            0x08005460   Section        0  tcp.o(i.tcp_fasttmr)
    i.tcp_input                              0x080054bc   Section        0  tcp_in.o(i.tcp_input)
    i.tcp_keepalive                          0x080057b4   Section        0  tcp_out.o(i.tcp_keepalive)
    i.tcp_listen_input                       0x080057fc   Section        0  tcp_in.o(i.tcp_listen_input)
    tcp_listen_input                         0x080057fd   Thumb Code   226  tcp_in.o(i.tcp_listen_input)
    i.tcp_listen_with_backlog                0x080058e8   Section        0  tcp.o(i.tcp_listen_with_backlog)
    i.tcp_new                                0x0800596c   Section        0  tcp.o(i.tcp_new)
    i.tcp_new_port                           0x08005974   Section        0  tcp.o(i.tcp_new_port)
    tcp_new_port                             0x08005975   Thumb Code    92  tcp.o(i.tcp_new_port)
    i.tcp_next_iss                           0x080059d4   Section        0  tcp.o(i.tcp_next_iss)
    i.tcp_output                             0x080059e4   Section        0  tcp_out.o(i.tcp_output)
    i.tcp_output_segment                     0x08005b98   Section        0  tcp_out.o(i.tcp_output_segment)
    tcp_output_segment                       0x08005b99   Thumb Code   170  tcp_out.o(i.tcp_output_segment)
    i.tcp_output_set_header                  0x08005c4c   Section        0  tcp_out.o(i.tcp_output_set_header)
    tcp_output_set_header                    0x08005c4d   Thumb Code   124  tcp_out.o(i.tcp_output_set_header)
    i.tcp_parseopt                           0x08005cc8   Section        0  tcp_in.o(i.tcp_parseopt)
    tcp_parseopt                             0x08005cc9   Thumb Code   120  tcp_in.o(i.tcp_parseopt)
    i.tcp_pcb_purge                          0x08005d44   Section        0  tcp.o(i.tcp_pcb_purge)
    i.tcp_pcb_remove                         0x08005d74   Section        0  tcp.o(i.tcp_pcb_remove)
    i.tcp_poll                               0x08005dd0   Section        0  tcp.o(i.tcp_poll)
    i.tcp_process                            0x08005ddc   Section        0  tcp_in.o(i.tcp_process)
    tcp_process                              0x08005ddd   Thumb Code   830  tcp_in.o(i.tcp_process)
    i.tcp_receive                            0x08006130   Section        0  tcp_in.o(i.tcp_receive)
    tcp_receive                              0x08006131   Thumb Code  1084  tcp_in.o(i.tcp_receive)
    i.tcp_recv                               0x0800656c   Section        0  tcp.o(i.tcp_recv)
    i.tcp_recv_null                          0x08006572   Section        0  tcp.o(i.tcp_recv_null)
    i.tcp_recved                             0x08006596   Section        0  tcp.o(i.tcp_recved)
    i.tcp_rexmit                             0x080065d2   Section        0  tcp_out.o(i.tcp_rexmit)
    i.tcp_rexmit_fast                        0x08006620   Section        0  tcp_out.o(i.tcp_rexmit_fast)
    i.tcp_rexmit_rto                         0x08006676   Section        0  tcp_out.o(i.tcp_rexmit_rto)
    i.tcp_rst                                0x080066a4   Section        0  tcp_out.o(i.tcp_rst)
    i.tcp_seg_free                           0x08006740   Section        0  tcp.o(i.tcp_seg_free)
    i.tcp_segs_free                          0x08006760   Section        0  tcp.o(i.tcp_segs_free)
    i.tcp_send_ctrl                          0x0800677a   Section        0  tcp_out.o(i.tcp_send_ctrl)
    i.tcp_send_empty_ack                     0x08006790   Section        0  tcp_out.o(i.tcp_send_empty_ack)
    i.tcp_sent                               0x080067e6   Section        0  tcp.o(i.tcp_sent)
    i.tcp_slowtmr                            0x080067ec   Section        0  tcp.o(i.tcp_slowtmr)
    i.tcp_timer_needed                       0x08006a18   Section        0  tcpip.o(i.tcp_timer_needed)
    i.tcp_timewait_input                     0x08006a4c   Section        0  tcp_in.o(i.tcp_timewait_input)
    tcp_timewait_input                       0x08006a4d   Thumb Code   100  tcp_in.o(i.tcp_timewait_input)
    i.tcp_tmr                                0x08006ab8   Section        0  tcp.o(i.tcp_tmr)
    i.tcp_update_rcv_ann_wnd                 0x08006ad8   Section        0  tcp.o(i.tcp_update_rcv_ann_wnd)
    i.tcp_write                              0x08006b0e   Section        0  tcp_out.o(i.tcp_write)
    i.tcp_zero_window_probe                  0x08006b3c   Section        0  tcp_out.o(i.tcp_zero_window_probe)
    i.tcpecho_init                           0x08006bcc   Section        0  tcpecho.o(i.tcpecho_init)
    i.tcpecho_thread                         0x08006bf8   Section        0  tcpecho.o(i.tcpecho_thread)
    tcpecho_thread                           0x08006bf9   Thumb Code   124  tcpecho.o(i.tcpecho_thread)
    i.tcpip_apimsg                           0x08006cac   Section        0  tcpip.o(i.tcpip_apimsg)
    i.tcpip_init                             0x08006ce0   Section        0  tcpip.o(i.tcpip_init)
    i.tcpip_input                            0x08006d1c   Section        0  tcpip.o(i.tcpip_input)
    i.tcpip_tcp_timer                        0x08006d64   Section        0  tcpip.o(i.tcpip_tcp_timer)
    tcpip_tcp_timer                          0x08006d65   Thumb Code    40  tcpip.o(i.tcpip_tcp_timer)
    i.tcpip_thread                           0x08006d9c   Section        0  tcpip.o(i.tcpip_thread)
    tcpip_thread                             0x08006d9d   Thumb Code   158  tcpip.o(i.tcpip_thread)
    i.udp_bind                               0x08006e50   Section        0  udp.o(i.udp_bind)
    i.udp_connect                            0x08006eac   Section        0  udp.o(i.udp_connect)
    i.udp_input                              0x08006ef8   Section        0  udp.o(i.udp_input)
    i.udp_new                                0x0800705c   Section        0  udp.o(i.udp_new)
    i.udp_recv                               0x08007076   Section        0  udp.o(i.udp_recv)
    i.udp_remove                             0x0800707c   Section        0  udp.o(i.udp_remove)
    i.udp_send                               0x080070a8   Section        0  udp.o(i.udp_send)
    i.udp_sendto                             0x080070b0   Section        0  udp.o(i.udp_sendto)
    i.udp_sendto_if                          0x080070d8   Section        0  udp.o(i.udp_sendto_if)
    i.udpecho_init                           0x08007188   Section        0  udpecho.o(i.udpecho_init)
    i.udpecho_thread                         0x080071b4   Section        0  udpecho.o(i.udpecho_thread)
    udpecho_thread                           0x080071b5   Thumb Code    88  udpecho.o(i.udpecho_thread)
    i.update_arp_entry                       0x08007248   Section        0  etharp.o(i.update_arp_entry)
    update_arp_entry                         0x08007249   Thumb Code   108  etharp.o(i.update_arp_entry)
    i.uxQueueMessagesWaiting                 0x080072b8   Section        0  queue.o(i.uxQueueMessagesWaiting)
    i.vListInitialise                        0x080072ca   Section        0  list.o(i.vListInitialise)
    i.vListInitialiseItem                    0x080072e0   Section        0  list.o(i.vListInitialiseItem)
    i.vListInsert                            0x080072e6   Section        0  list.o(i.vListInsert)
    i.vListInsertEnd                         0x08007316   Section        0  list.o(i.vListInsertEnd)
    i.vListRemove                            0x08007332   Section        0  list.o(i.vListRemove)
    i.vPortEnterCritical                     0x08007358   Section        0  port.o(i.vPortEnterCritical)
    i.vPortExitCritical                      0x0800736c   Section        0  port.o(i.vPortExitCritical)
    i.vPortFree                              0x08007380   Section        0  heap_2.o(i.vPortFree)
    i.vPortYieldFromISR                      0x080073bc   Section        0  port.o(i.vPortYieldFromISR)
    i.vQueueDelete                           0x080073cc   Section        0  queue.o(i.vQueueDelete)
    i.vTaskDelay                             0x080073e0   Section        0  tasks.o(i.vTaskDelay)
    i.vTaskIncrementTick                     0x08007428   Section        0  tasks.o(i.vTaskIncrementTick)
    i.vTaskMissedYield                       0x080074a4   Section        0  tasks.o(i.vTaskMissedYield)
    i.vTaskPlaceOnEventList                  0x080074b0   Section        0  tasks.o(i.vTaskPlaceOnEventList)
    i.vTaskPriorityDisinherit                0x080074ec   Section        0  tasks.o(i.vTaskPriorityDisinherit)
    i.vTaskPriorityInherit                   0x08007534   Section        0  tasks.o(i.vTaskPriorityInherit)
    i.vTaskSetTimeOutState                   0x08007598   Section        0  tasks.o(i.vTaskSetTimeOutState)
    i.vTaskStartScheduler                    0x080075a8   Section        0  tasks.o(i.vTaskStartScheduler)
    i.vTaskSuspendAll                        0x080075ec   Section        0  tasks.o(i.vTaskSuspendAll)
    i.vTaskSwitchContext                     0x080075fc   Section        0  tasks.o(i.vTaskSwitchContext)
    i.xPortStartScheduler                    0x08007648   Section        0  port.o(i.xPortStartScheduler)
    i.xPortSysTickHandler                    0x08007684   Section        0  port.o(i.xPortSysTickHandler)
    i.xQueueCreate                           0x080076a4   Section        0  queue.o(i.xQueueCreate)
    i.xQueueCreateCountingSemaphore          0x08007702   Section        0  queue.o(i.xQueueCreateCountingSemaphore)
    i.xQueueGenericReceive                   0x08007714   Section        0  queue.o(i.xQueueGenericReceive)
    i.xQueueGenericSend                      0x0800781c   Section        0  queue.o(i.xQueueGenericSend)
    i.xQueueGenericSendFromISR               0x080078ee   Section        0  queue.o(i.xQueueGenericSendFromISR)
    i.xTaskCheckForTimeOut                   0x08007944   Section        0  tasks.o(i.xTaskCheckForTimeOut)
    i.xTaskGenericCreate                     0x0800798c   Section        0  tasks.o(i.xTaskGenericCreate)
    i.xTaskGetCurrentTaskHandle              0x08007aec   Section        0  tasks.o(i.xTaskGetCurrentTaskHandle)
    i.xTaskGetTickCount                      0x08007af8   Section        0  tasks.o(i.xTaskGetTickCount)
    i.xTaskRemoveFromEventList               0x08007b10   Section        0  tasks.o(i.xTaskRemoveFromEventList)
    i.xTaskResumeAll                         0x08007b70   Section        0  tasks.o(i.xTaskResumeAll)
    .constdata                               0x08007c20   Section       48  memp.o(.constdata)
    memp_sizes                               0x08007c20   Data          24  memp.o(.constdata)
    memp_num                                 0x08007c38   Data          24  memp.o(.constdata)
    .constdata                               0x08007c50   Section       20  tcp.o(.constdata)
    .constdata                               0x08007c64   Section        4  ip_addr.o(.constdata)
    .constdata                               0x08007c68   Section        4  ip_addr.o(.constdata)
    .constdata                               0x08007c6c   Section       12  etharp.o(.constdata)
    .constdata                               0x08007c78   Section     4560  stm324xg_eval_lcd.o(.constdata)
    .constdata                               0x08008e48   Section       92  stm324xg_eval.o(.constdata)
    .conststring                             0x08008ea4   Section      104  tcp.o(.conststring)
    .data                                    0x20000000   Section        4  main.o(.data)
    .data                                    0x20000004   Section        8  stm32f4x7_eth_bsp.o(.data)
    .data                                    0x2000000c   Section       16  udpecho.o(.data)
    port                                     0x2000000c   Data           2  udpecho.o(.data)
    conn                                     0x20000010   Data           4  udpecho.o(.data)
    buf                                      0x20000014   Data           4  udpecho.o(.data)
    addr                                     0x20000018   Data           4  udpecho.o(.data)
    .data                                    0x2000001c   Section       16  tcpip.o(.data)
    mbox                                     0x2000001c   Data           4  tcpip.o(.data)
    tcpip_init_done                          0x20000020   Data           4  tcpip.o(.data)
    tcpip_init_done_arg                      0x20000024   Data           4  tcpip.o(.data)
    tcpip_tcp_timer_active                   0x20000028   Data           4  tcpip.o(.data)
    .data                                    0x2000002c   Section        4  dhcp.o(.data)
    xid                                      0x2000002c   Data           4  dhcp.o(.data)
    .data                                    0x20000030   Section       16  mem.o(.data)
    ram                                      0x20000030   Data           4  mem.o(.data)
    ram_end                                  0x20000034   Data           4  mem.o(.data)
    lfree                                    0x20000038   Data           4  mem.o(.data)
    mem_sem                                  0x2000003c   Data           4  mem.o(.data)
    .data                                    0x20000040   Section       12  netif.o(.data)
    netifnum                                 0x20000040   Data           1  netif.o(.data)
    .data                                    0x2000004c   Section        4  raw.o(.data)
    raw_pcbs                                 0x2000004c   Data           4  raw.o(.data)
    .data                                    0x20000050   Section       76  tcp.o(.data)
    tcp_timer                                0x20000050   Data           1  tcp.o(.data)
    port                                     0x20000052   Data           2  tcp.o(.data)
    iss                                      0x20000054   Data           4  tcp.o(.data)
    .data                                    0x2000009c   Section       28  tcp_in.o(.data)
    flags                                    0x2000009c   Data           1  tcp_in.o(.data)
    recv_flags                               0x2000009d   Data           1  tcp_in.o(.data)
    tcplen                                   0x2000009e   Data           2  tcp_in.o(.data)
    tcphdr                                   0x200000a0   Data           4  tcp_in.o(.data)
    iphdr                                    0x200000a4   Data           4  tcp_in.o(.data)
    seqno                                    0x200000a8   Data           4  tcp_in.o(.data)
    ackno                                    0x200000ac   Data           4  tcp_in.o(.data)
    recv_data                                0x200000b0   Data           4  tcp_in.o(.data)
    .data                                    0x200000b8   Section        4  udp.o(.data)
    .data                                    0x200000bc   Section       12  ip.o(.data)
    ip_id                                    0x200000bc   Data           2  ip.o(.data)
    .data                                    0x200000c8   Section        1  etharp.o(.data)
    etharp_cached_entry                      0x200000c8   Data           1  etharp.o(.data)
    .data                                    0x200000cc   Section       12  ethernetif.o(.data)
    s_pxNetIf                                0x200000cc   Data           4  ethernetif.o(.data)
    xTxSemaphore                             0x200000d4   Data           4  ethernetif.o(.data)
    .data                                    0x200000d8   Section        2  sys_arch.o(.data)
    s_nextthread                             0x200000d8   Data           2  sys_arch.o(.data)
    .data                                    0x200000da   Section       16  stm32f4xx_rcc.o(.data)
    APBAHBPrescTable                         0x200000da   Data          16  stm32f4xx_rcc.o(.data)
    .data                                    0x200000ec   Section       12  stm32f4x7_eth.o(.data)
    .data                                    0x200000f8   Section       20  stm324xg_eval_lcd.o(.data)
    LCD_Currentfonts                         0x20000100   Data           4  stm324xg_eval_lcd.o(.data)
    .data                                    0x2000010c   Section       44  stm324xg_eval.o(.data)
    .data                                    0x20000138   Section        4  port.o(.data)
    uxCriticalNesting                        0x20000138   Data           4  port.o(.data)
    .data                                    0x2000013c   Section       24  heap_2.o(.data)
    xFreeBytesRemaining                      0x2000013c   Data           4  heap_2.o(.data)
    xHeapHasBeenInitialised                  0x20000140   Data           4  heap_2.o(.data)
    xStart                                   0x20000144   Data           8  heap_2.o(.data)
    xEnd                                     0x2000014c   Data           8  heap_2.o(.data)
    .data                                    0x20000154   Section       56  tasks.o(.data)
    uxTasksDeleted                           0x20000158   Data           4  tasks.o(.data)
    uxCurrentNumberOfTasks                   0x2000015c   Data           4  tasks.o(.data)
    xTickCount                               0x20000160   Data           4  tasks.o(.data)
    uxTopUsedPriority                        0x20000164   Data           4  tasks.o(.data)
    uxTopReadyPriority                       0x20000168   Data           4  tasks.o(.data)
    xSchedulerRunning                        0x2000016c   Data           4  tasks.o(.data)
    uxSchedulerSuspended                     0x20000170   Data           4  tasks.o(.data)
    uxMissedTicks                            0x20000174   Data           4  tasks.o(.data)
    xMissedYield                             0x20000178   Data           4  tasks.o(.data)
    xNumOfOverflows                          0x2000017c   Data           4  tasks.o(.data)
    uxTaskNumber                             0x20000180   Data           4  tasks.o(.data)
    pxDelayedTaskList                        0x20000184   Data           4  tasks.o(.data)
    pxOverflowDelayedTaskList                0x20000188   Data           4  tasks.o(.data)
    .data                                    0x2000018c   Section        4  stdout.o(.data)
    .bss                                     0x20000190   Section       56  netconf.o(.bss)
    .bss                                     0x200001c8   Section     5140  mem.o(.bss)
    ram_heap                                 0x200001c8   Data        5140  mem.o(.bss)
    .bss                                     0x200015dc   Section    15123  memp.o(.bss)
    memp_tab                                 0x200015dc   Data          48  memp.o(.bss)
    memp_memory                              0x2000160c   Data       15075  memp.o(.bss)
    .bss                                     0x200050f0   Section       20  tcp_in.o(.bss)
    inseg                                    0x200050f0   Data          20  tcp_in.o(.bss)
    .bss                                     0x20005104   Section      160  etharp.o(.bss)
    arp_table                                0x20005104   Data         160  etharp.o(.bss)
    .bss                                     0x200051a4   Section       48  sys_arch.o(.bss)
    s_timeoutlist                            0x200051a4   Data          48  sys_arch.o(.bss)
    .bss                                     0x200051d4   Section      160  stm32f4x7_eth.o(.bss)
    .bss                                     0x20005274   Section      160  stm32f4x7_eth.o(.bss)
    .bss                                     0x20005314   Section     7620  stm32f4x7_eth.o(.bss)
    .bss                                     0x200070d8   Section     7620  stm32f4x7_eth.o(.bss)
    .bss                                     0x20008e9c   Section       12  stm32f4x7_eth.o(.bss)
    .bss                                     0x20008ea8   Section    15360  heap_2.o(.bss)
    xHeap                                    0x20008ea8   Data       15360  heap_2.o(.bss)
    .bss                                     0x2000caa8   Section      220  tasks.o(.bss)
    pxReadyTasksLists                        0x2000caa8   Data         140  tasks.o(.bss)
    xDelayedTaskList1                        0x2000cb34   Data          20  tasks.o(.bss)
    xDelayedTaskList2                        0x2000cb48   Data          20  tasks.o(.bss)
    xPendingReadyList                        0x2000cb5c   Data          20  tasks.o(.bss)
    xTasksWaitingTermination                 0x2000cb70   Data          20  tasks.o(.bss)
    STACK                                    0x2000cb88   Section     1024  startup_stm32f4xx.o(STACK)

    Global Symbols

    Symbol Name                              Value     Ov Type        Size  Object(Section)

    BuildAttributes$$THM_ISAv4$E$P$D$K$B$S$7EM$PE$A:L22UL41UL21$X:L11$S22US41US21$IEEE1$IW$USESV6$~STKCKD$USESV7$~SHL$OSPACE$ROPI$EBA8$MICROLIB$REQ8$PRES8$EABIv2 0x00000000   Number         0  anon$$obj.o ABSOLUTE
    __ARM_use_no_argv                        0x00000000   Number         0  main.o ABSOLUTE
    _printf_a                                0x00000000   Number         0  stubs.o ABSOLUTE
    _printf_c                                0x00000000   Number         0  stubs.o ABSOLUTE
    _printf_charcount                        0x00000000   Number         0  stubs.o ABSOLUTE
    _printf_d                                0x00000000   Number         0  stubs.o ABSOLUTE
    _printf_e                                0x00000000   Number         0  stubs.o ABSOLUTE
    _printf_f                                0x00000000   Number         0  stubs.o ABSOLUTE
    _printf_flags                            0x00000000   Number         0  stubs.o ABSOLUTE
    _printf_fp_dec                           0x00000000   Number         0  stubs.o ABSOLUTE
    _printf_fp_hex                           0x00000000   Number         0  stubs.o ABSOLUTE
    _printf_g                                0x00000000   Number         0  stubs.o ABSOLUTE
    _printf_i                                0x00000000   Number         0  stubs.o ABSOLUTE
    _printf_int_dec                          0x00000000   Number         0  stubs.o ABSOLUTE
    _printf_l                                0x00000000   Number         0  stubs.o ABSOLUTE
    _printf_lc                               0x00000000   Number         0  stubs.o ABSOLUTE
    _printf_ll                               0x00000000   Number         0  stubs.o ABSOLUTE
    _printf_lld                              0x00000000   Number         0  stubs.o ABSOLUTE
    _printf_lli                              0x00000000   Number         0  stubs.o ABSOLUTE
    _printf_llo                              0x00000000   Number         0  stubs.o ABSOLUTE
    _printf_llu                              0x00000000   Number         0  stubs.o ABSOLUTE
    _printf_llx                              0x00000000   Number         0  stubs.o ABSOLUTE
    _printf_longlong_dec                     0x00000000   Number         0  stubs.o ABSOLUTE
    _printf_longlong_hex                     0x00000000   Number         0  stubs.o ABSOLUTE
    _printf_longlong_oct                     0x00000000   Number         0  stubs.o ABSOLUTE
    _printf_ls                               0x00000000   Number         0  stubs.o ABSOLUTE
    _printf_mbtowc                           0x00000000   Number         0  stubs.o ABSOLUTE
    _printf_n                                0x00000000   Number         0  stubs.o ABSOLUTE
    _printf_o                                0x00000000   Number         0  stubs.o ABSOLUTE
    _printf_p                                0x00000000   Number         0  stubs.o ABSOLUTE
    _printf_percent                          0x00000000   Number         0  stubs.o ABSOLUTE
    _printf_pre_padding                      0x00000000   Number         0  stubs.o ABSOLUTE
    _printf_return_value                     0x00000000   Number         0  stubs.o ABSOLUTE
    _printf_s                                0x00000000   Number         0  stubs.o ABSOLUTE
    _printf_sizespec                         0x00000000   Number         0  stubs.o ABSOLUTE
    _printf_str                              0x00000000   Number         0  stubs.o ABSOLUTE
    _printf_truncate_signed                  0x00000000   Number         0  stubs.o ABSOLUTE
    _printf_truncate_unsigned                0x00000000   Number         0  stubs.o ABSOLUTE
    _printf_u                                0x00000000   Number         0  stubs.o ABSOLUTE
    _printf_wc                               0x00000000   Number         0  stubs.o ABSOLUTE
    _printf_wctomb                           0x00000000   Number         0  stubs.o ABSOLUTE
    _printf_widthprec                        0x00000000   Number         0  stubs.o ABSOLUTE
    _printf_x                                0x00000000   Number         0  stubs.o ABSOLUTE
    _clock_init                               - Undefined Weak Reference
    __Vectors_Size                           0x00000188   Number         0  startup_stm32f4xx.o ABSOLUTE
    __Vectors                                0x08000000   Data           4  startup_stm32f4xx.o(RESET)
    __Vectors_End                            0x08000188   Data           0  startup_stm32f4xx.o(RESET)
    __main                                   0x08000189   Thumb Code     0  entry.o(.ARM.Collect$$$$00000000)
    _main_stk                                0x08000189   Thumb Code     0  entry2.o(.ARM.Collect$$$$00000001)
    _main_scatterload                        0x0800018d   Thumb Code     0  entry5.o(.ARM.Collect$$$$00000004)
    __main_after_scatterload                 0x08000191   Thumb Code     0  entry5.o(.ARM.Collect$$$$00000004)
    _main_clock                              0x08000191   Thumb Code     0  entry7b.o(.ARM.Collect$$$$00000008)
    _main_init                               0x08000191   Thumb Code     0  entry8.o(.ARM.Collect$$$$00000009)
    vPortSVCHandler                          0x0800019d   Thumb Code    28  port.o(.emb_text)
    vPortStartFirstTask                      0x080001bd   Thumb Code    12  port.o(.emb_text)
    xPortPendSVHandler                       0x080001cd   Thumb Code    56  port.o(.emb_text)
    vPortSetInterruptMask                    0x08000209   Thumb Code    14  port.o(.emb_text)
    vPortClearInterruptMask                  0x08000217   Thumb Code    14  port.o(.emb_text)
    Reset_Handler                            0x08000225   Thumb Code     8  startup_stm32f4xx.o(.text)
    ADC_IRQHandler                           0x0800023f   Thumb Code     0  startup_stm32f4xx.o(.text)
    CAN1_RX0_IRQHandler                      0x0800023f   Thumb Code     0  startup_stm32f4xx.o(.text)
    CAN1_RX1_IRQHandler                      0x0800023f   Thumb Code     0  startup_stm32f4xx.o(.text)
    CAN1_SCE_IRQHandler                      0x0800023f   Thumb Code     0  startup_stm32f4xx.o(.text)
    CAN1_TX_IRQHandler                       0x0800023f   Thumb Code     0  startup_stm32f4xx.o(.text)
    CAN2_RX0_IRQHandler                      0x0800023f   Thumb Code     0  startup_stm32f4xx.o(.text)
    CAN2_RX1_IRQHandler                      0x0800023f   Thumb Code     0  startup_stm32f4xx.o(.text)
    CAN2_SCE_IRQHandler                      0x0800023f   Thumb Code     0  startup_stm32f4xx.o(.text)
    CAN2_TX_IRQHandler                       0x0800023f   Thumb Code     0  startup_stm32f4xx.o(.text)
    CRYP_IRQHandler                          0x0800023f   Thumb Code     0  startup_stm32f4xx.o(.text)
    DCMI_IRQHandler                          0x0800023f   Thumb Code     0  startup_stm32f4xx.o(.text)
    DMA1_Stream0_IRQHandler                  0x0800023f   Thumb Code     0  startup_stm32f4xx.o(.text)
    DMA1_Stream1_IRQHandler                  0x0800023f   Thumb Code     0  startup_stm32f4xx.o(.text)
    DMA1_Stream2_IRQHandler                  0x0800023f   Thumb Code     0  startup_stm32f4xx.o(.text)
    DMA1_Stream3_IRQHandler                  0x0800023f   Thumb Code     0  startup_stm32f4xx.o(.text)
    DMA1_Stream4_IRQHandler                  0x0800023f   Thumb Code     0  startup_stm32f4xx.o(.text)
    DMA1_Stream5_IRQHandler                  0x0800023f   Thumb Code     0  startup_stm32f4xx.o(.text)
    DMA1_Stream6_IRQHandler                  0x0800023f   Thumb Code     0  startup_stm32f4xx.o(.text)
    DMA1_Stream7_IRQHandler                  0x0800023f   Thumb Code     0  startup_stm32f4xx.o(.text)
    DMA2_Stream0_IRQHandler                  0x0800023f   Thumb Code     0  startup_stm32f4xx.o(.text)
    DMA2_Stream1_IRQHandler                  0x0800023f   Thumb Code     0  startup_stm32f4xx.o(.text)
    DMA2_Stream2_IRQHandler                  0x0800023f   Thumb Code     0  startup_stm32f4xx.o(.text)
    DMA2_Stream3_IRQHandler                  0x0800023f   Thumb Code     0  startup_stm32f4xx.o(.text)
    DMA2_Stream4_IRQHandler                  0x0800023f   Thumb Code     0  startup_stm32f4xx.o(.text)
    DMA2_Stream5_IRQHandler                  0x0800023f   Thumb Code     0  startup_stm32f4xx.o(.text)
    DMA2_Stream6_IRQHandler                  0x0800023f   Thumb Code     0  startup_stm32f4xx.o(.text)
    DMA2_Stream7_IRQHandler                  0x0800023f   Thumb Code     0  startup_stm32f4xx.o(.text)
    ETH_WKUP_IRQHandler                      0x0800023f   Thumb Code     0  startup_stm32f4xx.o(.text)
    EXTI0_IRQHandler                         0x0800023f   Thumb Code     0  startup_stm32f4xx.o(.text)
    EXTI1_IRQHandler                         0x0800023f   Thumb Code     0  startup_stm32f4xx.o(.text)
    EXTI2_IRQHandler                         0x0800023f   Thumb Code     0  startup_stm32f4xx.o(.text)
    EXTI3_IRQHandler                         0x0800023f   Thumb Code     0  startup_stm32f4xx.o(.text)
    EXTI4_IRQHandler                         0x0800023f   Thumb Code     0  startup_stm32f4xx.o(.text)
    EXTI9_5_IRQHandler                       0x0800023f   Thumb Code     0  startup_stm32f4xx.o(.text)
    FLASH_IRQHandler                         0x0800023f   Thumb Code     0  startup_stm32f4xx.o(.text)
    FPU_IRQHandler                           0x0800023f   Thumb Code     0  startup_stm32f4xx.o(.text)
    FSMC_IRQHandler                          0x0800023f   Thumb Code     0  startup_stm32f4xx.o(.text)
    HASH_RNG_IRQHandler                      0x0800023f   Thumb Code     0  startup_stm32f4xx.o(.text)
    I2C1_ER_IRQHandler                       0x0800023f   Thumb Code     0  startup_stm32f4xx.o(.text)
    I2C1_EV_IRQHandler                       0x0800023f   Thumb Code     0  startup_stm32f4xx.o(.text)
    I2C2_ER_IRQHandler                       0x0800023f   Thumb Code     0  startup_stm32f4xx.o(.text)
    I2C2_EV_IRQHandler                       0x0800023f   Thumb Code     0  startup_stm32f4xx.o(.text)
    I2C3_ER_IRQHandler                       0x0800023f   Thumb Code     0  startup_stm32f4xx.o(.text)
    I2C3_EV_IRQHandler                       0x0800023f   Thumb Code     0  startup_stm32f4xx.o(.text)
    OTG_FS_IRQHandler                        0x0800023f   Thumb Code     0  startup_stm32f4xx.o(.text)
    OTG_FS_WKUP_IRQHandler                   0x0800023f   Thumb Code     0  startup_stm32f4xx.o(.text)
    OTG_HS_EP1_IN_IRQHandler                 0x0800023f   Thumb Code     0  startup_stm32f4xx.o(.text)
    OTG_HS_EP1_OUT_IRQHandler                0x0800023f   Thumb Code     0  startup_stm32f4xx.o(.text)
    OTG_HS_IRQHandler                        0x0800023f   Thumb Code     0  startup_stm32f4xx.o(.text)
    OTG_HS_WKUP_IRQHandler                   0x0800023f   Thumb Code     0  startup_stm32f4xx.o(.text)
    PVD_IRQHandler                           0x0800023f   Thumb Code     0  startup_stm32f4xx.o(.text)
    RCC_IRQHandler                           0x0800023f   Thumb Code     0  startup_stm32f4xx.o(.text)
    RTC_Alarm_IRQHandler                     0x0800023f   Thumb Code     0  startup_stm32f4xx.o(.text)
    RTC_WKUP_IRQHandler                      0x0800023f   Thumb Code     0  startup_stm32f4xx.o(.text)
    SDIO_IRQHandler                          0x0800023f   Thumb Code     0  startup_stm32f4xx.o(.text)
    SPI1_IRQHandler                          0x0800023f   Thumb Code     0  startup_stm32f4xx.o(.text)
    SPI2_IRQHandler                          0x0800023f   Thumb Code     0  startup_stm32f4xx.o(.text)
    SPI3_IRQHandler                          0x0800023f   Thumb Code     0  startup_stm32f4xx.o(.text)
    TAMP_STAMP_IRQHandler                    0x0800023f   Thumb Code     0  startup_stm32f4xx.o(.text)
    TIM1_BRK_TIM9_IRQHandler                 0x0800023f   Thumb Code     0  startup_stm32f4xx.o(.text)
    TIM1_CC_IRQHandler                       0x0800023f   Thumb Code     0  startup_stm32f4xx.o(.text)
    TIM1_TRG_COM_TIM11_IRQHandler            0x0800023f   Thumb Code     0  startup_stm32f4xx.o(.text)
    TIM1_UP_TIM10_IRQHandler                 0x0800023f   Thumb Code     0  startup_stm32f4xx.o(.text)
    TIM2_IRQHandler                          0x0800023f   Thumb Code     0  startup_stm32f4xx.o(.text)
    TIM3_IRQHandler                          0x0800023f   Thumb Code     0  startup_stm32f4xx.o(.text)
    TIM4_IRQHandler                          0x0800023f   Thumb Code     0  startup_stm32f4xx.o(.text)
    TIM5_IRQHandler                          0x0800023f   Thumb Code     0  startup_stm32f4xx.o(.text)
    TIM6_DAC_IRQHandler                      0x0800023f   Thumb Code     0  startup_stm32f4xx.o(.text)
    TIM7_IRQHandler                          0x0800023f   Thumb Code     0  startup_stm32f4xx.o(.text)
    TIM8_BRK_TIM12_IRQHandler                0x0800023f   Thumb Code     0  startup_stm32f4xx.o(.text)
    TIM8_CC_IRQHandler                       0x0800023f   Thumb Code     0  startup_stm32f4xx.o(.text)
    TIM8_TRG_COM_TIM14_IRQHandler            0x0800023f   Thumb Code     0  startup_stm32f4xx.o(.text)
    TIM8_UP_TIM13_IRQHandler                 0x0800023f   Thumb Code     0  startup_stm32f4xx.o(.text)
    UART4_IRQHandler                         0x0800023f   Thumb Code     0  startup_stm32f4xx.o(.text)
    UART5_IRQHandler                         0x0800023f   Thumb Code     0  startup_stm32f4xx.o(.text)
    USART1_IRQHandler                        0x0800023f   Thumb Code     0  startup_stm32f4xx.o(.text)
    USART2_IRQHandler                        0x0800023f   Thumb Code     0  startup_stm32f4xx.o(.text)
    USART3_IRQHandler                        0x0800023f   Thumb Code     0  startup_stm32f4xx.o(.text)
    USART6_IRQHandler                        0x0800023f   Thumb Code     0  startup_stm32f4xx.o(.text)
    WWDG_IRQHandler                          0x0800023f   Thumb Code     0  startup_stm32f4xx.o(.text)
    __aeabi_memcpy                           0x08000249   Thumb Code    36  memcpya.o(.text)
    __aeabi_memcpy4                          0x08000249   Thumb Code     0  memcpya.o(.text)
    __aeabi_memcpy8                          0x08000249   Thumb Code     0  memcpya.o(.text)
    __aeabi_memset                           0x0800026d   Thumb Code    14  memseta.o(.text)
    __aeabi_memset4                          0x0800026d   Thumb Code     0  memseta.o(.text)
    __aeabi_memset8                          0x0800026d   Thumb Code     0  memseta.o(.text)
    __aeabi_memclr                           0x0800027b   Thumb Code     4  memseta.o(.text)
    __aeabi_memclr4                          0x0800027b   Thumb Code     0  memseta.o(.text)
    __aeabi_memclr8                          0x0800027b   Thumb Code     0  memseta.o(.text)
    _memset$wrapper                          0x0800027f   Thumb Code    20  memseta.o(.text)
    strncpy                                  0x08000293   Thumb Code    24  strncpy.o(.text)
    memcmp                                   0x080002ab   Thumb Code    26  memcmp.o(.text)
    __aeabi_uidiv                            0x080002c5   Thumb Code     0  uidiv.o(.text)
    __aeabi_uidivmod                         0x080002c5   Thumb Code    44  uidiv.o(.text)
    __scatterload                            0x080002f1   Thumb Code    28  init.o(.text)
    __scatterload_rt2                        0x080002f1   Thumb Code     0  init.o(.text)
    __I$use$semihosting$fputc                0x08000315   Thumb Code     0  iusesemip.o(.text)
    __decompress                             0x08000315   Thumb Code     0  __dczerorl2.o(.text)
    __decompress1                            0x08000315   Thumb Code    92  __dczerorl2.o(.text)
    __semihosting_library_function           0x08000315   Thumb Code     0  semi.o(.text)
    BusFault_Handler                         0x08000371   Thumb Code     2  stm32f4xx_it.o(i.BusFault_Handler)
    DebugMon_Handler                         0x08000373   Thumb Code     2  stm32f4xx_it.o(i.DebugMon_Handler)
    ETH_BSP_Config                           0x08000375   Thumb Code   116  stm32f4x7_eth_bsp.o(i.ETH_BSP_Config)
    ETH_DMAClearITPendingBit                 0x08000415   Thumb Code     6  stm32f4x7_eth.o(i.ETH_DMAClearITPendingBit)
    ETH_DMAITConfig                          0x08000421   Thumb Code    18  stm32f4x7_eth.o(i.ETH_DMAITConfig)
    ETH_DMAReceptionCmd                      0x08000439   Thumb Code    22  stm32f4x7_eth.o(i.ETH_DMAReceptionCmd)
    ETH_DMARxDescChainInit                   0x08000455   Thumb Code    74  stm32f4x7_eth.o(i.ETH_DMARxDescChainInit)
    ETH_DMARxDescReceiveITConfig             0x080004ad   Thumb Code    18  stm32f4x7_eth.o(i.ETH_DMARxDescReceiveITConfig)
    ETH_DMATransmissionCmd                   0x080004c1   Thumb Code    22  stm32f4x7_eth.o(i.ETH_DMATransmissionCmd)
    ETH_DMATxDescChainInit                   0x080004dd   Thumb Code    62  stm32f4x7_eth.o(i.ETH_DMATxDescChainInit)
    ETH_DMATxDescChecksumInsertionConfig     0x08000525   Thumb Code     8  stm32f4x7_eth.o(i.ETH_DMATxDescChecksumInsertionConfig)
    ETH_DeInit                               0x0800052d   Thumb Code    24  stm32f4x7_eth.o(i.ETH_DeInit)
    ETH_FlushTransmitFIFO                    0x08000551   Thumb Code    12  stm32f4x7_eth.o(i.ETH_FlushTransmitFIFO)
    ETH_GetDMAFlagStatus                     0x08000631   Thumb Code    16  stm32f4x7_eth.o(i.ETH_GetDMAFlagStatus)
    ETH_GetSoftwareResetStatus               0x08000645   Thumb Code    14  stm32f4x7_eth.o(i.ETH_GetSoftwareResetStatus)
    ETH_Get_Received_Frame_interrupt         0x08000659   Thumb Code   134  stm32f4x7_eth.o(i.ETH_Get_Received_Frame_interrupt)
    ETH_IRQHandler                           0x080006e5   Thumb Code    56  stm32f4xx_it.o(i.ETH_IRQHandler)
    ETH_Init                                 0x08000721   Thumb Code   512  stm32f4x7_eth.o(i.ETH_Init)
    ETH_MACAddressConfig                     0x08000959   Thumb Code    22  stm32f4x7_eth.o(i.ETH_MACAddressConfig)
    ETH_MACReceptionCmd                      0x080009f9   Thumb Code    22  stm32f4x7_eth.o(i.ETH_MACReceptionCmd)
    ETH_MACTransmissionCmd                   0x08000a15   Thumb Code    22  stm32f4x7_eth.o(i.ETH_MACTransmissionCmd)
    ETH_Prepare_Transmit_Descriptors         0x08000a31   Thumb Code   164  stm32f4x7_eth.o(i.ETH_Prepare_Transmit_Descriptors)
    ETH_ReadPHYRegister                      0x08000add   Thumb Code    70  stm32f4x7_eth.o(i.ETH_ReadPHYRegister)
    ETH_SoftwareReset                        0x08000b2d   Thumb Code    12  stm32f4x7_eth.o(i.ETH_SoftwareReset)
    ETH_Start                                0x08000b3d   Thumb Code    34  stm32f4x7_eth.o(i.ETH_Start)
    ETH_StructInit                           0x08000b5f   Thumb Code   136  stm32f4x7_eth.o(i.ETH_StructInit)
    ETH_WritePHYRegister                     0x08000be9   Thumb Code    66  stm32f4x7_eth.o(i.ETH_WritePHYRegister)
    EXTI15_10_IRQHandler                     0x08000c35   Thumb Code    34  stm32f4xx_it.o(i.EXTI15_10_IRQHandler)
    EXTI_ClearITPendingBit                   0x08000c59   Thumb Code     6  stm32f4xx_exti.o(i.EXTI_ClearITPendingBit)
    EXTI_GetITStatus                         0x08000c65   Thumb Code    28  stm32f4xx_exti.o(i.EXTI_GetITStatus)
    EXTI_Init                                0x08000c85   Thumb Code   108  stm32f4xx_exti.o(i.EXTI_Init)
    Eth_Link_EXTIConfig                      0x08000cf5   Thumb Code   110  stm32f4x7_eth_bsp.o(i.Eth_Link_EXTIConfig)
    Eth_Link_ITHandler                       0x08000d69   Thumb Code   112  stm32f4x7_eth_bsp.o(i.Eth_Link_ITHandler)
    Eth_Link_PHYITConfig                     0x08000e25   Thumb Code    54  stm32f4x7_eth_bsp.o(i.Eth_Link_PHYITConfig)
    FSMC_NORSRAMCmd                          0x08000e5d   Thumb Code    28  stm32f4xx_fsmc.o(i.FSMC_NORSRAMCmd)
    FSMC_NORSRAMInit                         0x08000e7d   Thumb Code   192  stm32f4xx_fsmc.o(i.FSMC_NORSRAMInit)
    GPIO_Init                                0x08000f3d   Thumb Code   124  stm32f4xx_gpio.o(i.GPIO_Init)
    GPIO_PinAFConfig                         0x08000fb9   Thumb Code    32  stm32f4xx_gpio.o(i.GPIO_PinAFConfig)
    HardFault_Handler                        0x08000fd9   Thumb Code     2  stm32f4xx_it.o(i.HardFault_Handler)
    LCD_Clear                                0x08000fdd   Thumb Code    40  stm324xg_eval_lcd.o(i.LCD_Clear)
    LCD_CtrlLinesConfig                      0x08001009   Thumb Code   308  stm324xg_eval_lcd.o(i.LCD_CtrlLinesConfig)
    LCD_DisplayChar                          0x08001149   Thumb Code    26  stm324xg_eval_lcd.o(i.LCD_DisplayChar)
    LCD_DisplayStringLine                    0x08001169   Thumb Code    52  stm324xg_eval_lcd.o(i.LCD_DisplayStringLine)
    LCD_DrawChar                             0x080011a1   Thumb Code   118  stm324xg_eval_lcd.o(i.LCD_DrawChar)
    LCD_FSMCConfig                           0x08001221   Thumb Code    78  stm324xg_eval_lcd.o(i.LCD_FSMCConfig)
    LCD_GetFont                              0x08001271   Thumb Code     6  stm324xg_eval_lcd.o(i.LCD_GetFont)
    LCD_LED_Init                             0x0800127d   Thumb Code   112  main.o(i.LCD_LED_Init)
    LCD_ReadReg                              0x0800134d   Thumb Code    12  stm324xg_eval_lcd.o(i.LCD_ReadReg)
    LCD_SetBackColor                         0x0800135d   Thumb Code     6  stm324xg_eval_lcd.o(i.LCD_SetBackColor)
    LCD_SetCursor                            0x08001369   Thumb Code    24  stm324xg_eval_lcd.o(i.LCD_SetCursor)
    LCD_SetTextColor                         0x08001381   Thumb Code     6  stm324xg_eval_lcd.o(i.LCD_SetTextColor)
    LCD_WriteReg                             0x0800138d   Thumb Code    12  stm324xg_eval_lcd.o(i.LCD_WriteReg)
    LwIP_Init                                0x0800139d   Thumb Code   132  netconf.o(i.LwIP_Init)
    MemManage_Handler                        0x08001459   Thumb Code     2  stm32f4xx_it.o(i.MemManage_Handler)
    NMI_Handler                              0x0800145b   Thumb Code     2  stm32f4xx_it.o(i.NMI_Handler)
    NVIC_Init                                0x0800145d   Thumb Code    92  misc.o(i.NVIC_Init)
    NVIC_PriorityGroupConfig                 0x080014c1   Thumb Code    10  misc.o(i.NVIC_PriorityGroupConfig)
    RCC_AHB1PeriphClockCmd                   0x080014d5   Thumb Code    18  stm32f4xx_rcc.o(i.RCC_AHB1PeriphClockCmd)
    RCC_AHB1PeriphResetCmd                   0x080014ed   Thumb Code    18  stm32f4xx_rcc.o(i.RCC_AHB1PeriphResetCmd)
    RCC_AHB3PeriphClockCmd                   0x08001505   Thumb Code    18  stm32f4xx_rcc.o(i.RCC_AHB3PeriphClockCmd)
    RCC_APB2PeriphClockCmd                   0x0800151d   Thumb Code    18  stm32f4xx_rcc.o(i.RCC_APB2PeriphClockCmd)
    RCC_GetClocksFreq                        0x08001535   Thumb Code   134  stm32f4xx_rcc.o(i.RCC_GetClocksFreq)
    RCC_MCO1Config                           0x080015c9   Thumb Code    16  stm32f4xx_rcc.o(i.RCC_MCO1Config)
    STM324xG_LCD_Init                        0x080015dd   Thumb Code   656  stm324xg_eval_lcd.o(i.STM324xG_LCD_Init)
    STM_EVAL_LEDInit                         0x08001875   Thumb Code    62  stm324xg_eval.o(i.STM_EVAL_LEDInit)
    STM_EVAL_LEDToggle                       0x080018bd   Thumb Code    20  stm324xg_eval.o(i.STM_EVAL_LEDToggle)
    SYSCFG_ETH_MediaInterfaceConfig          0x080018d9   Thumb Code     6  stm32f4xx_syscfg.o(i.SYSCFG_ETH_MediaInterfaceConfig)
    SYSCFG_EXTILineConfig                    0x080018e5   Thumb Code    34  stm32f4xx_syscfg.o(i.SYSCFG_EXTILineConfig)
    SysTick_Handler                          0x080019a9   Thumb Code     4  stm32f4xx_it.o(i.SysTick_Handler)
    SystemInit                               0x080019ad   Thumb Code    62  system_stm32f4xx.o(i.SystemInit)
    ToggleLed4                               0x080019fd   Thumb Code    28  main.o(i.ToggleLed4)
    UsageFault_Handler                       0x08001a21   Thumb Code     2  stm32f4xx_it.o(i.UsageFault_Handler)
    __0printf$1                              0x08001a25   Thumb Code    22  printf1.o(i.__0printf$1)
    __1printf$1                              0x08001a25   Thumb Code     0  printf1.o(i.__0printf$1)
    __2printf                                0x08001a25   Thumb Code     0  printf1.o(i.__0printf$1)
    __0sprintf$1                             0x08001a45   Thumb Code    34  printf1.o(i.__0sprintf$1)
    __1sprintf$1                             0x08001a45   Thumb Code     0  printf1.o(i.__0sprintf$1)
    __2sprintf                               0x08001a45   Thumb Code     0  printf1.o(i.__0sprintf$1)
    __scatterload_copy                       0x08001a6d   Thumb Code    14  handlers.o(i.__scatterload_copy)
    __scatterload_null                       0x08001a7b   Thumb Code     2  handlers.o(i.__scatterload_null)
    __scatterload_zeroinit                   0x08001a7d   Thumb Code    14  handlers.o(i.__scatterload_zeroinit)
    autoip_arp_reply                         0x08001ca1   Thumb Code   154  autoip.o(i.autoip_arp_reply)
    autoip_init                              0x08001d3b   Thumb Code     2  autoip.o(i.autoip_init)
    autoip_start                             0x08001d3d   Thumb Code   140  autoip.o(i.autoip_start)
    autoip_tmr                               0x08001e31   Thumb Code   266  autoip.o(i.autoip_tmr)
    delay_ms                                 0x08001f51   Thumb Code    28  stm324xg_eval_lcd.o(i.delay_ms)
    dhcp_arp_reply                           0x08001f6d   Thumb Code    30  dhcp.o(i.dhcp_arp_reply)
    dhcp_coarse_tmr                          0x0800208d   Thumb Code    90  dhcp.o(i.dhcp_coarse_tmr)
    dhcp_fine_tmr                            0x08002351   Thumb Code    46  dhcp.o(i.dhcp_fine_tmr)
    dhcp_release                             0x08002589   Thumb Code   176  dhcp.o(i.dhcp_release)
    dhcp_renew                               0x0800263d   Thumb Code   144  dhcp.o(i.dhcp_renew)
    do_bind                                  0x0800288d   Thumb Code    92  api_msg.o(i.do_bind)
    do_close                                 0x080028e9   Thumb Code    34  api_msg.o(i.do_close)
    do_connect                               0x080029b5   Thumb Code   102  api_msg.o(i.do_connect)
    do_delconn                               0x08002a4d   Thumb Code   104  api_msg.o(i.do_delconn)
    do_listen                                0x08002ab5   Thumb Code   144  api_msg.o(i.do_listen)
    do_newconn                               0x08002b49   Thumb Code    28  api_msg.o(i.do_newconn)
    do_recv                                  0x08002b65   Thumb Code    46  api_msg.o(i.do_recv)
    do_send                                  0x08002b93   Thumb Code    98  api_msg.o(i.do_send)
    do_write                                 0x08002bf5   Thumb Code    54  api_msg.o(i.do_write)
    etharp_arp_input                         0x08002d49   Thumb Code   254  etharp.o(i.etharp_arp_input)
    etharp_output                            0x08002e4d   Thumb Code   180  etharp.o(i.etharp_output)
    etharp_query                             0x08002f05   Thumb Code   134  etharp.o(i.etharp_query)
    etharp_raw                               0x08002f91   Thumb Code   178  etharp.o(i.etharp_raw)
    etharp_request                           0x08003049   Thumb Code    32  etharp.o(i.etharp_request)
    etharp_tmr                               0x080030a5   Thumb Code    54  etharp.o(i.etharp_tmr)
    ethernet_input                           0x080030e1   Thumb Code    76  etharp.o(i.ethernet_input)
    ethernetif_init                          0x0800312d   Thumb Code    42  ethernetif.o(i.ethernetif_init)
    fputc                                    0x0800327d   Thumb Code    18  fputc.o(i.fputc)
    htonl                                    0x0800328f   Thumb Code     4  inet.o(i.htonl)
    htons                                    0x08003293   Thumb Code     4  inet.o(i.htons)
    icmp_dest_unreach                        0x08003297   Thumb Code   102  icmp.o(i.icmp_dest_unreach)
    icmp_input                               0x080032fd   Thumb Code   276  icmp.o(i.icmp_input)
    inet_chksum                              0x08003411   Thumb Code    12  inet_chksum.o(i.inet_chksum)
    inet_chksum_pbuf                         0x0800341d   Thumb Code    72  inet_chksum.o(i.inet_chksum_pbuf)
    ip_addr_isbroadcast                      0x08003465   Thumb Code    48  ip_addr.o(i.ip_addr_isbroadcast)
    ip_input                                 0x08003495   Thumb Code   372  ip.o(i.ip_input)
    ip_output                                0x08003611   Thumb Code    52  ip.o(i.ip_output)
    ip_output_if                             0x08003645   Thumb Code   170  ip.o(i.ip_output_if)
    ip_route                                 0x080036f5   Thumb Code    62  ip.o(i.ip_route)
    lwip_init                                0x08003901   Thumb Code    22  init.o(i.lwip_init)
    main                                     0x08003951   Thumb Code    52  main.o(i.main)
    mem_free                                 0x08003991   Thumb Code    60  mem.o(i.mem_free)
    mem_init                                 0x080039d1   Thumb Code    52  mem.o(i.mem_init)
    mem_malloc                               0x08003a0d   Thumb Code   188  mem.o(i.mem_malloc)
    mem_realloc                              0x08003acd   Thumb Code   214  mem.o(i.mem_realloc)
    memp_free                                0x08003ba9   Thumb Code    18  memp.o(i.memp_free)
    memp_init                                0x08003bc1   Thumb Code    78  memp.o(i.memp_init)
    memp_malloc                              0x08003c19   Thumb Code    28  memp.o(i.memp_malloc)
    netbuf_data                              0x08003c39   Thumb Code    38  netbuf.o(i.netbuf_data)
    netbuf_delete                            0x08003c5f   Thumb Code    34  netbuf.o(i.netbuf_delete)
    netbuf_next                              0x08003c81   Thumb Code    30  netbuf.o(i.netbuf_next)
    netconn_accept                           0x08003c9f   Thumb Code    40  api_lib.o(i.netconn_accept)
    netconn_alloc                            0x08003cc7   Thumb Code   116  api_msg.o(i.netconn_alloc)
    netconn_bind                             0x08003d3d   Thumb Code    40  api_lib.o(i.netconn_bind)
    netconn_close                            0x08003d69   Thumb Code    34  api_lib.o(i.netconn_close)
    netconn_connect                          0x08003d91   Thumb Code    40  api_lib.o(i.netconn_connect)
    netconn_delete                           0x08003dbd   Thumb Code    36  api_lib.o(i.netconn_delete)
    netconn_free                             0x08003de5   Thumb Code   104  api_msg.o(i.netconn_free)
    netconn_listen_with_backlog              0x08003e4d   Thumb Code    34  api_lib.o(i.netconn_listen_with_backlog)
    netconn_new_with_proto_and_callback      0x08003e75   Thumb Code    66  api_lib.o(i.netconn_new_with_proto_and_callback)
    netconn_recv                             0x08003ebd   Thumb Code   204  api_lib.o(i.netconn_recv)
    netconn_send                             0x08003f8d   Thumb Code    36  api_lib.o(i.netconn_send)
    netconn_write                            0x08003fb5   Thumb Code    54  api_lib.o(i.netconn_write)
    netif_add                                0x08003ff1   Thumb Code    72  netif.o(i.netif_add)
    netif_is_up                              0x0800403d   Thumb Code    10  netif.o(i.netif_is_up)
    netif_set_addr                           0x08004047   Thumb Code    32  netif.o(i.netif_set_addr)
    netif_set_default                        0x08004069   Thumb Code     6  netif.o(i.netif_set_default)
    netif_set_down                           0x08004075   Thumb Code    18  netif.o(i.netif_set_down)
    netif_set_gw                             0x08004087   Thumb Code     8  netif.o(i.netif_set_gw)
    netif_set_ipaddr                         0x08004091   Thumb Code    96  netif.o(i.netif_set_ipaddr)
    netif_set_netmask                        0x080040f9   Thumb Code     8  netif.o(i.netif_set_netmask)
    netif_set_up                             0x08004101   Thumb Code    28  netif.o(i.netif_set_up)
    ntohl                                    0x0800411d   Thumb Code     4  inet.o(i.ntohl)
    ntohs                                    0x08004121   Thumb Code     4  inet.o(i.ntohs)
    pbuf_alloc                               0x08004125   Thumb Code   272  pbuf.o(i.pbuf_alloc)
    pbuf_cat                                 0x08004235   Thumb Code    40  pbuf.o(i.pbuf_cat)
    pbuf_chain                               0x0800425d   Thumb Code    18  pbuf.o(i.pbuf_chain)
    pbuf_clen                                0x0800426f   Thumb Code    18  pbuf.o(i.pbuf_clen)
    pbuf_copy                                0x08004281   Thumb Code   144  pbuf.o(i.pbuf_copy)
    pbuf_free                                0x08004311   Thumb Code    68  pbuf.o(i.pbuf_free)
    pbuf_header                              0x08004355   Thumb Code    96  pbuf.o(i.pbuf_header)
    pbuf_realloc                             0x080043b5   Thumb Code    80  pbuf.o(i.pbuf_realloc)
    pbuf_ref                                 0x08004405   Thumb Code    12  pbuf.o(i.pbuf_ref)
    pvPortMalloc                             0x08004671   Thumb Code   168  heap_2.o(i.pvPortMalloc)
    pxPortInitialiseStack                    0x08004721   Thumb Code    28  port.o(i.pxPortInitialiseStack)
    raw_bind                                 0x0800473d   Thumb Code    10  raw.o(i.raw_bind)
    raw_connect                              0x08004747   Thumb Code    10  raw.o(i.raw_connect)
    raw_input                                0x08004751   Thumb Code   102  raw.o(i.raw_input)
    raw_new                                  0x080047bd   Thumb Code    38  raw.o(i.raw_new)
    raw_recv                                 0x080047e9   Thumb Code     6  raw.o(i.raw_recv)
    raw_remove                               0x080047f1   Thumb Code    40  raw.o(i.raw_remove)
    raw_send                                 0x0800481d   Thumb Code     6  raw.o(i.raw_send)
    raw_sendto                               0x08004823   Thumb Code   138  raw.o(i.raw_sendto)
    sys_arch_mbox_fetch                      0x08004a4d   Thumb Code    76  sys_arch.o(i.sys_arch_mbox_fetch)
    sys_arch_mbox_tryfetch                   0x08004a99   Thumb Code    28  sys_arch.o(i.sys_arch_mbox_tryfetch)
    sys_arch_sem_wait                        0x08004ab5   Thumb Code    66  sys_arch.o(i.sys_arch_sem_wait)
    sys_arch_timeouts                        0x08004af9   Thumb Code    40  sys_arch.o(i.sys_arch_timeouts)
    sys_init                                 0x08004b29   Thumb Code    30  sys_arch.o(i.sys_init)
    sys_mbox_fetch                           0x08004b51   Thumb Code    96  sys.o(i.sys_mbox_fetch)
    sys_mbox_free                            0x08004bb1   Thumb Code    18  sys_arch.o(i.sys_mbox_free)
    sys_mbox_new                             0x08004bc3   Thumb Code     8  sys_arch.o(i.sys_mbox_new)
    sys_mbox_post                            0x08004bcb   Thumb Code    26  sys_arch.o(i.sys_mbox_post)
    sys_mbox_trypost                         0x08004be5   Thumb Code    26  sys_arch.o(i.sys_mbox_trypost)
    sys_sem_free                             0x08004bff   Thumb Code     4  sys_arch.o(i.sys_sem_free)
    sys_sem_new                              0x08004c03   Thumb Code    50  sys_arch.o(i.sys_sem_new)
    sys_sem_signal                           0x08004c35   Thumb Code    10  sys_arch.o(i.sys_sem_signal)
    sys_thread_new                           0x08004c41   Thumb Code    72  sys_arch.o(i.sys_thread_new)
    sys_timeout                              0x08004c91   Thumb Code    98  sys.o(i.sys_timeout)
    sys_untimeout                            0x08004cf3   Thumb Code    78  sys.o(i.sys_untimeout)
    tcp_abandon                              0x08004d41   Thumb Code   144  tcp.o(i.tcp_abandon)
    tcp_accept                               0x08004dd5   Thumb Code     4  tcp.o(i.tcp_accept)
    tcp_alloc                                0x08004de1   Thumb Code   232  tcp.o(i.tcp_alloc)
    tcp_arg                                  0x08004ed5   Thumb Code     4  tcp.o(i.tcp_arg)
    tcp_bind                                 0x08004ed9   Thumb Code   186  tcp.o(i.tcp_bind)
    tcp_close                                0x08004f99   Thumb Code   154  tcp.o(i.tcp_close)
    tcp_connect                              0x08005039   Thumb Code   186  tcp.o(i.tcp_connect)
    tcp_eff_send_mss                         0x080050f9   Thumb Code    32  tcp.o(i.tcp_eff_send_mss)
    tcp_enqueue                              0x08005119   Thumb Code   834  tcp_out.o(i.tcp_enqueue)
    tcp_err                                  0x0800545b   Thumb Code     6  tcp.o(i.tcp_err)
    tcp_fasttmr                              0x08005461   Thumb Code    86  tcp.o(i.tcp_fasttmr)
    tcp_input                                0x080054bd   Thumb Code   738  tcp_in.o(i.tcp_input)
    tcp_keepalive                            0x080057b5   Thumb Code    70  tcp_out.o(i.tcp_keepalive)
    tcp_listen_with_backlog                  0x080058e9   Thumb Code   122  tcp.o(i.tcp_listen_with_backlog)
    tcp_new                                  0x0800596d   Thumb Code     6  tcp.o(i.tcp_new)
    tcp_next_iss                             0x080059d5   Thumb Code    12  tcp.o(i.tcp_next_iss)
    tcp_output                               0x080059e5   Thumb Code   432  tcp_out.o(i.tcp_output)
    tcp_pcb_purge                            0x08005d45   Thumb Code    48  tcp.o(i.tcp_pcb_purge)
    tcp_pcb_remove                           0x08005d75   Thumb Code    86  tcp.o(i.tcp_pcb_remove)
    tcp_poll                                 0x08005dd1   Thumb Code    10  tcp.o(i.tcp_poll)
    tcp_recv                                 0x0800656d   Thumb Code     6  tcp.o(i.tcp_recv)
    tcp_recv_null                            0x08006573   Thumb Code    36  tcp.o(i.tcp_recv_null)
    tcp_recved                               0x08006597   Thumb Code    60  tcp.o(i.tcp_recved)
    tcp_rexmit                               0x080065d3   Thumb Code    78  tcp_out.o(i.tcp_rexmit)
    tcp_rexmit_fast                          0x08006621   Thumb Code    86  tcp_out.o(i.tcp_rexmit_fast)
    tcp_rexmit_rto                           0x08006677   Thumb Code    46  tcp_out.o(i.tcp_rexmit_rto)
    tcp_rst                                  0x080066a5   Thumb Code   156  tcp_out.o(i.tcp_rst)
    tcp_seg_free                             0x08006741   Thumb Code    32  tcp.o(i.tcp_seg_free)
    tcp_segs_free                            0x08006761   Thumb Code    26  tcp.o(i.tcp_segs_free)
    tcp_send_ctrl                            0x0800677b   Thumb Code    22  tcp_out.o(i.tcp_send_ctrl)
    tcp_send_empty_ack                       0x08006791   Thumb Code    86  tcp_out.o(i.tcp_send_empty_ack)
    tcp_sent                                 0x080067e7   Thumb Code     6  tcp.o(i.tcp_sent)
    tcp_slowtmr                              0x080067ed   Thumb Code   538  tcp.o(i.tcp_slowtmr)
    tcp_timer_needed                         0x08006a19   Thumb Code    36  tcpip.o(i.tcp_timer_needed)
    tcp_tmr                                  0x08006ab9   Thumb Code    28  tcp.o(i.tcp_tmr)
    tcp_update_rcv_ann_wnd                   0x08006ad9   Thumb Code    54  tcp.o(i.tcp_update_rcv_ann_wnd)
    tcp_write                                0x08006b0f   Thumb Code    46  tcp_out.o(i.tcp_write)
    tcp_zero_window_probe                    0x08006b3d   Thumb Code   144  tcp_out.o(i.tcp_zero_window_probe)
    tcpecho_init                             0x08006bcd   Thumb Code    22  tcpecho.o(i.tcpecho_init)
    tcpip_apimsg                             0x08006cad   Thumb Code    48  tcpip.o(i.tcpip_apimsg)
    tcpip_init                               0x08006ce1   Thumb Code    44  tcpip.o(i.tcpip_init)
    tcpip_input                              0x08006d1d   Thumb Code    68  tcpip.o(i.tcpip_input)
    udp_bind                                 0x08006e51   Thumb Code    86  udp.o(i.udp_bind)
    udp_connect                              0x08006ead   Thumb Code    70  udp.o(i.udp_connect)
    udp_input                                0x08006ef9   Thumb Code   352  udp.o(i.udp_input)
    udp_new                                  0x0800705d   Thumb Code    26  udp.o(i.udp_new)
    udp_recv                                 0x08007077   Thumb Code     6  udp.o(i.udp_recv)
    udp_remove                               0x0800707d   Thumb Code    40  udp.o(i.udp_remove)
    udp_send                                 0x080070a9   Thumb Code     8  udp.o(i.udp_send)
    udp_sendto                               0x080070b1   Thumb Code    40  udp.o(i.udp_sendto)
    udp_sendto_if                            0x080070d9   Thumb Code   176  udp.o(i.udp_sendto_if)
    udpecho_init                             0x08007189   Thumb Code    22  udpecho.o(i.udpecho_init)
    uxQueueMessagesWaiting                   0x080072b9   Thumb Code    18  queue.o(i.uxQueueMessagesWaiting)
    vListInitialise                          0x080072cb   Thumb Code    22  list.o(i.vListInitialise)
    vListInitialiseItem                      0x080072e1   Thumb Code     6  list.o(i.vListInitialiseItem)
    vListInsert                              0x080072e7   Thumb Code    48  list.o(i.vListInsert)
    vListInsertEnd                           0x08007317   Thumb Code    28  list.o(i.vListInsertEnd)
    vListRemove                              0x08007333   Thumb Code    36  list.o(i.vListRemove)
    vPortEnterCritical                       0x08007359   Thumb Code    16  port.o(i.vPortEnterCritical)
    vPortExitCritical                        0x0800736d   Thumb Code    16  port.o(i.vPortExitCritical)
    vPortFree                                0x08007381   Thumb Code    56  heap_2.o(i.vPortFree)
    vPortYieldFromISR                        0x080073bd   Thumb Code    10  port.o(i.vPortYieldFromISR)
    vQueueDelete                             0x080073cd   Thumb Code    20  queue.o(i.vQueueDelete)
    vTaskDelay                               0x080073e1   Thumb Code    68  tasks.o(i.vTaskDelay)
    vTaskIncrementTick                       0x08007429   Thumb Code   114  tasks.o(i.vTaskIncrementTick)
    vTaskMissedYield                         0x080074a5   Thumb Code     8  tasks.o(i.vTaskMissedYield)
    vTaskPlaceOnEventList                    0x080074b1   Thumb Code    56  tasks.o(i.vTaskPlaceOnEventList)
    vTaskPriorityDisinherit                  0x080074ed   Thumb Code    64  tasks.o(i.vTaskPriorityDisinherit)
    vTaskPriorityInherit                     0x08007535   Thumb Code    90  tasks.o(i.vTaskPriorityInherit)
    vTaskSetTimeOutState                     0x08007599   Thumb Code    12  tasks.o(i.vTaskSetTimeOutState)
    vTaskStartScheduler                      0x080075a9   Thumb Code    50  tasks.o(i.vTaskStartScheduler)
    vTaskSuspendAll                          0x080075ed   Thumb Code    10  tasks.o(i.vTaskSuspendAll)
    vTaskSwitchContext                       0x080075fd   Thumb Code    66  tasks.o(i.vTaskSwitchContext)
    xPortStartScheduler                      0x08007649   Thumb Code    46  port.o(i.xPortStartScheduler)
    xPortSysTickHandler                      0x08007685   Thumb Code    26  port.o(i.xPortSysTickHandler)
    xQueueCreate                             0x080076a5   Thumb Code    94  queue.o(i.xQueueCreate)
    xQueueCreateCountingSemaphore            0x08007703   Thumb Code    18  queue.o(i.xQueueCreateCountingSemaphore)
    xQueueGenericReceive                     0x08007715   Thumb Code   264  queue.o(i.xQueueGenericReceive)
    xQueueGenericSend                        0x0800781d   Thumb Code   210  queue.o(i.xQueueGenericSend)
    xQueueGenericSendFromISR                 0x080078ef   Thumb Code    84  queue.o(i.xQueueGenericSendFromISR)
    xTaskCheckForTimeOut                     0x08007945   Thumb Code    68  tasks.o(i.xTaskCheckForTimeOut)
    xTaskGenericCreate                       0x0800798d   Thumb Code   342  tasks.o(i.xTaskGenericCreate)
    xTaskGetCurrentTaskHandle                0x08007aed   Thumb Code     6  tasks.o(i.xTaskGetCurrentTaskHandle)
    xTaskGetTickCount                        0x08007af9   Thumb Code    18  tasks.o(i.xTaskGetTickCount)
    xTaskRemoveFromEventList                 0x08007b11   Thumb Code    88  tasks.o(i.xTaskRemoveFromEventList)
    xTaskResumeAll                           0x08007b71   Thumb Code   168  tasks.o(i.xTaskResumeAll)
    tcp_persist_backoff                      0x08007c50   Data           7  tcp.o(.constdata)
    tcp_backoff                              0x08007c57   Data          13  tcp.o(.constdata)
    ip_addr_any                              0x08007c64   Data           4  ip_addr.o(.constdata)
    ip_addr_broadcast                        0x08007c68   Data           4  ip_addr.o(.constdata)
    ethbroadcast                             0x08007c6c   Data           6  etharp.o(.constdata)
    ethzero                                  0x08007c72   Data           6  etharp.o(.constdata)
    ASCII16x24_Table                         0x08007c78   Data        4560  stm324xg_eval_lcd.o(.constdata)
    COM_TX_PIN                               0x08008e48   Data           2  stm324xg_eval.o(.constdata)
    COM_RX_PIN                               0x08008e4a   Data           2  stm324xg_eval.o(.constdata)
    COM_TX_PIN_SOURCE                        0x08008e4c   Data           2  stm324xg_eval.o(.constdata)
    COM_RX_PIN_SOURCE                        0x08008e4e   Data           2  stm324xg_eval.o(.constdata)
    COM_TX_AF                                0x08008e50   Data           2  stm324xg_eval.o(.constdata)
    COM_RX_AF                                0x08008e52   Data           2  stm324xg_eval.o(.constdata)
    COM_USART_CLK                            0x08008e54   Data           4  stm324xg_eval.o(.constdata)
    COM_TX_PORT_CLK                          0x08008e58   Data           4  stm324xg_eval.o(.constdata)
    COM_RX_PORT_CLK                          0x08008e5c   Data           4  stm324xg_eval.o(.constdata)
    BUTTON_PIN                               0x08008e60   Data           6  stm324xg_eval.o(.constdata)
    BUTTON_EXTI_LINE                         0x08008e66   Data           6  stm324xg_eval.o(.constdata)
    BUTTON_PORT_SOURCE                       0x08008e6c   Data           6  stm324xg_eval.o(.constdata)
    BUTTON_PIN_SOURCE                        0x08008e72   Data           6  stm324xg_eval.o(.constdata)
    BUTTON_IRQn                              0x08008e78   Data           6  stm324xg_eval.o(.constdata)
    GPIO_PIN                                 0x08008e7e   Data           8  stm324xg_eval.o(.constdata)
    GPIO_CLK                                 0x08008e88   Data          16  stm324xg_eval.o(.constdata)
    BUTTON_CLK                               0x08008e98   Data          12  stm324xg_eval.o(.constdata)
    Region$$Table$$Base                      0x08008f0c   Number         0  anon$$obj.o(Region$$Table)
    Region$$Table$$Limit                     0x08008f2c   Number         0  anon$$obj.o(Region$$Table)
    test                                     0x20000000   Data           4  main.o(.data)
    EthLinkStatus                            0x20000004   Data           1  stm32f4x7_eth_bsp.o(.data)
    EthInitStatus                            0x20000008   Data           4  stm32f4x7_eth_bsp.o(.data)
    netif_list                               0x20000044   Data           4  netif.o(.data)
    netif_default                            0x20000048   Data           4  netif.o(.data)
    tcp_ticks                                0x20000058   Data           4  tcp.o(.data)
    tcp_bound_pcbs                           0x2000005c   Data           4  tcp.o(.data)
    tcp_listen_pcbs                          0x20000060   Data           4  tcp.o(.data)
    tcp_active_pcbs                          0x20000064   Data           4  tcp.o(.data)
    tcp_tw_pcbs                              0x20000068   Data           4  tcp.o(.data)
    tcp_tmp_pcb                              0x2000006c   Data           4  tcp.o(.data)
    tcp_state_str                            0x20000070   Data          44  tcp.o(.data)
    tcp_input_pcb                            0x200000b4   Data           4  tcp_in.o(.data)
    udp_pcbs                                 0x200000b8   Data           4  udp.o(.data)
    current_netif                            0x200000c0   Data           4  ip.o(.data)
    current_header                           0x200000c4   Data           4  ip.o(.data)
    s_xSemaphore                             0x200000d0   Data           4  ethernetif.o(.data)
    DMATxDescToSet                           0x200000ec   Data           4  stm32f4x7_eth.o(.data)
    DMARxDescToGet                           0x200000f0   Data           4  stm32f4x7_eth.o(.data)
    DMA_RX_FRAME_infos                       0x200000f4   Data           4  stm32f4x7_eth.o(.data)
    TextColor                                0x200000f8   Data           2  stm324xg_eval_lcd.o(.data)
    BackColor                                0x200000fa   Data           2  stm324xg_eval_lcd.o(.data)
    lcdid                                    0x200000fc   Data           4  stm324xg_eval_lcd.o(.data)
    Font16x24                                0x20000104   Data           8  stm324xg_eval_lcd.o(.data)
    COM_USART                                0x2000010c   Data           4  stm324xg_eval.o(.data)
    COM_TX_PORT                              0x20000110   Data           4  stm324xg_eval.o(.data)
    COM_RX_PORT                              0x20000114   Data           4  stm324xg_eval.o(.data)
    NVIC_InitStructure                       0x20000118   Data           4  stm324xg_eval.o(.data)
    GPIO_PORT                                0x2000011c   Data          16  stm324xg_eval.o(.data)
    BUTTON_PORT                              0x2000012c   Data          12  stm324xg_eval.o(.data)
    pxCurrentTCB                             0x20000154   Data           4  tasks.o(.data)
    __stdout                                 0x2000018c   Data           4  stdout.o(.data)
    xnetif                                   0x20000190   Data          56  netconf.o(.bss)
    DMARxDscrTab                             0x200051d4   Data         160  stm32f4x7_eth.o(.bss)
    DMATxDscrTab                             0x20005274   Data         160  stm32f4x7_eth.o(.bss)
    Rx_Buff                                  0x20005314   Data        7620  stm32f4x7_eth.o(.bss)
    Tx_Buff                                  0x200070d8   Data        7620  stm32f4x7_eth.o(.bss)
    RX_Frame_Descriptor                      0x20008e9c   Data          12  stm32f4x7_eth.o(.bss)
    __initial_sp                             0x2000cf88   Data           0  startup_stm32f4xx.o(STACK)



==============================================================================

Memory Map of the image

  Image Entry point : 0x08000189

  Load Region LR_IROM1 (Base: 0x08000000, Size: 0x000090bc, Max: 0x00100000, ABSOLUTE, COMPRESSED[0x00008f8c])

    Execution Region ER_IROM1 (Base: 0x08000000, Size: 0x00008f2c, Max: 0x00100000, ABSOLUTE)

    Base Addr    Size         Type   Attr      Idx    E Section Name        Object

    0x08000000   0x00000188   Data   RO          139    RESET               startup_stm32f4xx.o
    0x08000188   0x00000000   Code   RO         5769  * .ARM.Collect$$$$00000000  mc_w.l(entry.o)
    0x08000188   0x00000004   Code   RO         6051    .ARM.Collect$$$$00000001  mc_w.l(entry2.o)
    0x0800018c   0x00000004   Code   RO         6054    .ARM.Collect$$$$00000004  mc_w.l(entry5.o)
    0x08000190   0x00000000   Code   RO         6056    .ARM.Collect$$$$00000008  mc_w.l(entry7b.o)
    0x08000190   0x00000008   Code   RO         6057    .ARM.Collect$$$$00000009  mc_w.l(entry8.o)
    0x08000198   0x00000004   Code   RO         6052    .ARM.Collect$$$$00002712  mc_w.l(entry2.o)
    0x0800019c   0x00000088   Code   RO         5340    .emb_text           port.o
    0x08000224   0x00000024   Code   RO          140    .text               startup_stm32f4xx.o
    0x08000248   0x00000024   Code   RO         5772    .text               mc_w.l(memcpya.o)
    0x0800026c   0x00000026   Code   RO         5774    .text               mc_w.l(memseta.o)
    0x08000292   0x00000018   Code   RO         5776    .text               mc_w.l(strncpy.o)
    0x080002aa   0x0000001a   Code   RO         5778    .text               mc_w.l(memcmp.o)
    0x080002c4   0x0000002c   Code   RO         6061    .text               mc_w.l(uidiv.o)
    0x080002f0   0x00000024   Code   RO         6076    .text               mc_w.l(init.o)
    0x08000314   0x00000000   Code   RO         6078    .text               mc_w.l(semi.o)
    0x08000314   0x00000000   Code   RO         6085    .text               mc_w.l(iusesemip.o)
    0x08000314   0x0000005c   Code   RO         6094    .text               mc_w.l(__dczerorl2.o)
    0x08000370   0x00000002   Code   RO          518    i.BusFault_Handler  stm32f4xx_it.o
    0x08000372   0x00000002   Code   RO          519    i.DebugMon_Handler  stm32f4xx_it.o
    0x08000374   0x000000a0   Code   RO          471    i.ETH_BSP_Config    stm32f4x7_eth_bsp.o
    0x08000414   0x0000000c   Code   RO         4481    i.ETH_DMAClearITPendingBit  stm32f4x7_eth.o
    0x08000420   0x00000018   Code   RO         4482    i.ETH_DMAITConfig   stm32f4x7_eth.o
    0x08000438   0x0000001c   Code   RO         4483    i.ETH_DMAReceptionCmd  stm32f4x7_eth.o
    0x08000454   0x00000058   Code   RO         4484    i.ETH_DMARxDescChainInit  stm32f4x7_eth.o
    0x080004ac   0x00000012   Code   RO         4485    i.ETH_DMARxDescReceiveITConfig  stm32f4x7_eth.o
    0x080004be   0x00000002   PAD
    0x080004c0   0x0000001c   Code   RO         4486    i.ETH_DMATransmissionCmd  stm32f4x7_eth.o
    0x080004dc   0x00000048   Code   RO         4489    i.ETH_DMATxDescChainInit  stm32f4x7_eth.o
    0x08000524   0x00000008   Code   RO         4490    i.ETH_DMATxDescChecksumInsertionConfig  stm32f4x7_eth.o
    0x0800052c   0x00000018   Code   RO         4495    i.ETH_DeInit        stm32f4x7_eth.o
    0x08000544   0x0000000a   Code   RO         4496    i.ETH_Delay         stm32f4x7_eth.o
    0x0800054e   0x00000002   PAD
    0x08000550   0x00000010   Code   RO         4498    i.ETH_FlushTransmitFIFO  stm32f4x7_eth.o
    0x08000560   0x000000d0   Code   RO          472    i.ETH_GPIO_Config   stm32f4x7_eth_bsp.o
    0x08000630   0x00000014   Code   RO         4504    i.ETH_GetDMAFlagStatus  stm32f4x7_eth.o
    0x08000644   0x00000014   Code   RO         4524    i.ETH_GetSoftwareResetStatus  stm32f4x7_eth.o
    0x08000658   0x0000008c   Code   RO         4527    i.ETH_Get_Received_Frame_interrupt  stm32f4x7_eth.o
    0x080006e4   0x0000003c   Code   RO          520    i.ETH_IRQHandler    stm32f4xx_it.o
    0x08000720   0x00000238   Code   RO         4529    i.ETH_Init          stm32f4x7_eth.o
    0x08000958   0x0000001c   Code   RO         4531    i.ETH_MACAddressConfig  stm32f4x7_eth.o
    0x08000974   0x00000084   Code   RO          473    i.ETH_MACDMA_Config  stm32f4x7_eth_bsp.o
    0x080009f8   0x0000001c   Code   RO         4536    i.ETH_MACReceptionCmd  stm32f4x7_eth.o
    0x08000a14   0x0000001c   Code   RO         4537    i.ETH_MACTransmissionCmd  stm32f4x7_eth.o
    0x08000a30   0x000000ac   Code   RO         4548    i.ETH_Prepare_Transmit_Descriptors  stm32f4x7_eth.o
    0x08000adc   0x00000050   Code   RO         4549    i.ETH_ReadPHYRegister  stm32f4x7_eth.o
    0x08000b2c   0x00000010   Code   RO         4557    i.ETH_SoftwareReset  stm32f4x7_eth.o
    0x08000b3c   0x00000022   Code   RO         4558    i.ETH_Start         stm32f4x7_eth.o
    0x08000b5e   0x00000088   Code   RO         4559    i.ETH_StructInit    stm32f4x7_eth.o
    0x08000be6   0x00000002   PAD
    0x08000be8   0x0000004c   Code   RO         4561    i.ETH_WritePHYRegister  stm32f4x7_eth.o
    0x08000c34   0x00000022   Code   RO          521    i.EXTI15_10_IRQHandler  stm32f4xx_it.o
    0x08000c56   0x00000002   PAD
    0x08000c58   0x0000000c   Code   RO         3293    i.EXTI_ClearITPendingBit  stm32f4xx_exti.o
    0x08000c64   0x00000020   Code   RO         3297    i.EXTI_GetITStatus  stm32f4xx_exti.o
    0x08000c84   0x00000070   Code   RO         3298    i.EXTI_Init         stm32f4xx_exti.o
    0x08000cf4   0x00000074   Code   RO          474    i.Eth_Link_EXTIConfig  stm32f4x7_eth_bsp.o
    0x08000d68   0x000000bc   Code   RO          475    i.Eth_Link_ITHandler  stm32f4x7_eth_bsp.o
    0x08000e24   0x00000036   Code   RO          476    i.Eth_Link_PHYITConfig  stm32f4x7_eth_bsp.o
    0x08000e5a   0x00000002   PAD
    0x08000e5c   0x00000020   Code   RO         3551    i.FSMC_NORSRAMCmd   stm32f4xx_fsmc.o
    0x08000e7c   0x000000c0   Code   RO         3553    i.FSMC_NORSRAMInit  stm32f4xx_fsmc.o
    0x08000f3c   0x0000007c   Code   RO         3665    i.GPIO_Init         stm32f4xx_gpio.o
    0x08000fb8   0x00000020   Code   RO         3666    i.GPIO_PinAFConfig  stm32f4xx_gpio.o
    0x08000fd8   0x00000002   Code   RO          522    i.HardFault_Handler  stm32f4xx_it.o
    0x08000fda   0x00000002   PAD
    0x08000fdc   0x0000002c   Code   RO         5004    i.LCD_Clear         stm324xg_eval_lcd.o
    0x08001008   0x00000140   Code   RO         5008    i.LCD_CtrlLinesConfig  stm324xg_eval_lcd.o
    0x08001148   0x00000020   Code   RO         5010    i.LCD_DisplayChar   stm324xg_eval_lcd.o
    0x08001168   0x00000038   Code   RO         5011    i.LCD_DisplayStringLine  stm324xg_eval_lcd.o
    0x080011a0   0x00000080   Code   RO         5012    i.LCD_DrawChar      stm324xg_eval_lcd.o
    0x08001220   0x0000004e   Code   RO         5020    i.LCD_FSMCConfig    stm324xg_eval_lcd.o
    0x0800126e   0x00000002   PAD
    0x08001270   0x0000000c   Code   RO         5023    i.LCD_GetFont       stm324xg_eval_lcd.o
    0x0800127c   0x000000d0   Code   RO          145    i.LCD_LED_Init      main.o
    0x0800134c   0x00000010   Code   RO         5028    i.LCD_ReadReg       stm324xg_eval_lcd.o
    0x0800135c   0x0000000c   Code   RO         5029    i.LCD_SetBackColor  stm324xg_eval_lcd.o
    0x08001368   0x00000018   Code   RO         5031    i.LCD_SetCursor     stm324xg_eval_lcd.o
    0x08001380   0x0000000c   Code   RO         5033    i.LCD_SetTextColor  stm324xg_eval_lcd.o
    0x0800138c   0x00000010   Code   RO         5037    i.LCD_WriteReg      stm324xg_eval_lcd.o
    0x0800139c   0x000000bc   Code   RO          406    i.LwIP_Init         netconf.o
    0x08001458   0x00000002   Code   RO          523    i.MemManage_Handler  stm32f4xx_it.o
    0x0800145a   0x00000002   Code   RO          524    i.NMI_Handler       stm32f4xx_it.o
    0x0800145c   0x00000064   Code   RO         2890    i.NVIC_Init         misc.o
    0x080014c0   0x00000014   Code   RO         2891    i.NVIC_PriorityGroupConfig  misc.o
    0x080014d4   0x00000018   Code   RO         3758    i.RCC_AHB1PeriphClockCmd  stm32f4xx_rcc.o
    0x080014ec   0x00000018   Code   RO         3760    i.RCC_AHB1PeriphResetCmd  stm32f4xx_rcc.o
    0x08001504   0x00000018   Code   RO         3764    i.RCC_AHB3PeriphClockCmd  stm32f4xx_rcc.o
    0x0800151c   0x00000018   Code   RO         3770    i.RCC_APB2PeriphClockCmd  stm32f4xx_rcc.o
    0x08001534   0x00000094   Code   RO         3779    i.RCC_GetClocksFreq  stm32f4xx_rcc.o
    0x080015c8   0x00000014   Code   RO         3790    i.RCC_MCO1Config    stm32f4xx_rcc.o
    0x080015dc   0x00000298   Code   RO         5039    i.STM324xG_LCD_Init  stm324xg_eval_lcd.o
    0x08001874   0x00000048   Code   RO         5247    i.STM_EVAL_LEDInit  stm324xg_eval.o
    0x080018bc   0x0000001c   Code   RO         5250    i.STM_EVAL_LEDToggle  stm324xg_eval.o
    0x080018d8   0x0000000c   Code   RO         4226    i.SYSCFG_ETH_MediaInterfaceConfig  stm32f4xx_syscfg.o
    0x080018e4   0x00000028   Code   RO         4227    i.SYSCFG_EXTILineConfig  stm32f4xx_syscfg.o
    0x0800190c   0x0000009c   Code   RO            2    i.SetSysClock       system_stm32f4xx.o
    0x080019a8   0x00000004   Code   RO          527    i.SysTick_Handler   stm32f4xx_it.o
    0x080019ac   0x00000050   Code   RO            4    i.SystemInit        system_stm32f4xx.o
    0x080019fc   0x00000024   Code   RO          146    i.ToggleLed4        main.o
    0x08001a20   0x00000002   Code   RO          528    i.UsageFault_Handler  stm32f4xx_it.o
    0x08001a22   0x00000002   PAD
    0x08001a24   0x00000020   Code   RO         5827    i.__0printf$1       mc_w.l(printf1.o)
    0x08001a44   0x00000028   Code   RO         5829    i.__0sprintf$1      mc_w.l(printf1.o)
    0x08001a6c   0x0000000e   Code   RO         6088    i.__scatterload_copy  mc_w.l(handlers.o)
    0x08001a7a   0x00000002   Code   RO         6089    i.__scatterload_null  mc_w.l(handlers.o)
    0x08001a7c   0x0000000e   Code   RO         6090    i.__scatterload_zeroinit  mc_w.l(handlers.o)
    0x08001a8a   0x00000002   PAD
    0x08001a8c   0x00000150   Code   RO         5834    i._printf_core      mc_w.l(printf1.o)
    0x08001bdc   0x0000000a   Code   RO         5836    i._sputc            mc_w.l(printf1.o)
    0x08001be6   0x00000058   Code   RO          860    i.accept_function   api_msg.o
    0x08001c3e   0x00000002   PAD
    0x08001c40   0x0000001c   Code   RO         1103    i.arp_timer         tcpip.o
    0x08001c5c   0x0000001c   Code   RO         2538    i.arp_timer         ethernetif.o
    0x08001c78   0x00000028   Code   RO         2213    i.autoip_arp_announce  autoip.o
    0x08001ca0   0x0000009a   Code   RO         2214    i.autoip_arp_reply  autoip.o
    0x08001d3a   0x00000002   Code   RO         2215    i.autoip_init       autoip.o
    0x08001d3c   0x00000098   Code   RO         2217    i.autoip_start      autoip.o
    0x08001dd4   0x00000044   Code   RO         2218    i.autoip_start_probing  autoip.o
    0x08001e18   0x00000018   Code   RO         1104    i.autoip_timer      tcpip.o
    0x08001e30   0x00000120   Code   RO         2220    i.autoip_tmr        autoip.o
    0x08001f50   0x0000001c   Code   RO         5040    i.delay_ms          stm324xg_eval_lcd.o
    0x08001f6c   0x0000001e   Code   RO         1236    i.dhcp_arp_reply    dhcp.o
    0x08001f8a   0x00000002   PAD
    0x08001f8c   0x000000d8   Code   RO         1237    i.dhcp_bind         dhcp.o
    0x08002064   0x00000026   Code   RO         1238    i.dhcp_check        dhcp.o
    0x0800208a   0x00000002   PAD
    0x0800208c   0x00000060   Code   RO         1239    i.dhcp_coarse_tmr   dhcp.o
    0x080020ec   0x00000104   Code   RO         1240    i.dhcp_create_request  dhcp.o
    0x080021f0   0x0000007c   Code   RO         1241    i.dhcp_decline      dhcp.o
    0x0800226c   0x0000001c   Code   RO         1242    i.dhcp_delete_request  dhcp.o
    0x08002288   0x000000c8   Code   RO         1243    i.dhcp_discover     dhcp.o
    0x08002350   0x00000034   Code   RO         1244    i.dhcp_fine_tmr     dhcp.o
    0x08002384   0x00000020   Code   RO         1251    i.dhcp_option       dhcp.o
    0x080023a4   0x00000010   Code   RO         1252    i.dhcp_option_byte  dhcp.o
    0x080023b4   0x00000042   Code   RO         1253    i.dhcp_option_long  dhcp.o
    0x080023f6   0x00000022   Code   RO         1254    i.dhcp_option_short  dhcp.o
    0x08002418   0x00000030   Code   RO         1255    i.dhcp_option_trailer  dhcp.o
    0x08002448   0x00000094   Code   RO         1256    i.dhcp_rebind       dhcp.o
    0x080024dc   0x000000ac   Code   RO         1257    i.dhcp_reboot       dhcp.o
    0x08002588   0x000000b4   Code   RO         1259    i.dhcp_release      dhcp.o
    0x0800263c   0x00000090   Code   RO         1260    i.dhcp_renew        dhcp.o
    0x080026cc   0x000000f0   Code   RO         1261    i.dhcp_select       dhcp.o
    0x080027bc   0x0000000e   Code   RO         1262    i.dhcp_set_state    dhcp.o
    0x080027ca   0x00000088   Code   RO         1265    i.dhcp_timeout      dhcp.o
    0x08002852   0x00000002   PAD
    0x08002854   0x0000001c   Code   RO         1105    i.dhcp_timer_coarse  tcpip.o
    0x08002870   0x0000001c   Code   RO         1106    i.dhcp_timer_fine   tcpip.o
    0x0800288c   0x0000005c   Code   RO          861    i.do_bind           api_msg.o
    0x080028e8   0x00000022   Code   RO          862    i.do_close          api_msg.o
    0x0800290a   0x00000002   PAD
    0x0800290c   0x000000a8   Code   RO          863    i.do_close_internal  api_msg.o
    0x080029b4   0x0000006c   Code   RO          864    i.do_connect        api_msg.o
    0x08002a20   0x0000002c   Code   RO          865    i.do_connected      api_msg.o
    0x08002a4c   0x00000068   Code   RO          866    i.do_delconn        api_msg.o
    0x08002ab4   0x00000094   Code   RO          869    i.do_listen         api_msg.o
    0x08002b48   0x0000001c   Code   RO          870    i.do_newconn        api_msg.o
    0x08002b64   0x0000002e   Code   RO          871    i.do_recv           api_msg.o
    0x08002b92   0x00000062   Code   RO          872    i.do_send           api_msg.o
    0x08002bf4   0x00000036   Code   RO          873    i.do_write          api_msg.o
    0x08002c2a   0x000000b8   Code   RO          874    i.do_writemore      api_msg.o
    0x08002ce2   0x00000064   Code   RO          875    i.err_tcp           api_msg.o
    0x08002d46   0x00000002   PAD
    0x08002d48   0x00000104   Code   RO         2439    i.etharp_arp_input  etharp.o
    0x08002e4c   0x000000b8   Code   RO         2442    i.etharp_output     etharp.o
    0x08002f04   0x0000008c   Code   RO         2443    i.etharp_query      etharp.o
    0x08002f90   0x000000b8   Code   RO         2444    i.etharp_raw        etharp.o
    0x08003048   0x00000024   Code   RO         2445    i.etharp_request    etharp.o
    0x0800306c   0x00000036   Code   RO         2446    i.etharp_send_ip    etharp.o
    0x080030a2   0x00000002   PAD
    0x080030a4   0x0000003c   Code   RO         2447    i.etharp_tmr        etharp.o
    0x080030e0   0x0000004c   Code   RO         2448    i.ethernet_input    etharp.o
    0x0800312c   0x00000038   Code   RO         2539    i.ethernetif_init   ethernetif.o
    0x08003164   0x00000030   Code   RO         2540    i.ethernetif_input  ethernetif.o
    0x08003194   0x000000e8   Code   RO         2449    i.find_entry        etharp.o
    0x0800327c   0x00000012   Code   RO         6058    i.fputc             mc_w.l(fputc.o)
    0x0800328e   0x00000004   Code   RO         2292    i.htonl             inet.o
    0x08003292   0x00000004   Code   RO         2293    i.htons             inet.o
    0x08003296   0x00000066   Code   RO         2268    i.icmp_dest_unreach  icmp.o
    0x080032fc   0x00000114   Code   RO         2269    i.icmp_input        icmp.o
    0x08003410   0x0000000c   Code   RO         2341    i.inet_chksum       inet_chksum.o
    0x0800341c   0x00000048   Code   RO         2342    i.inet_chksum_pbuf  inet_chksum.o
    0x08003464   0x00000030   Code   RO         2410    i.ip_addr_isbroadcast  ip_addr.o
    0x08003494   0x0000017c   Code   RO         2370    i.ip_input          ip.o
    0x08003610   0x00000034   Code   RO         2371    i.ip_output         ip.o
    0x08003644   0x000000b0   Code   RO         2372    i.ip_output_if      ip.o
    0x080036f4   0x00000048   Code   RO         2373    i.ip_route          ip.o
    0x0800373c   0x000000cc   Code   RO         2541    i.low_level_init    ethernetif.o
    0x08003808   0x00000088   Code   RO         2542    i.low_level_input   ethernetif.o
    0x08003890   0x00000070   Code   RO         2543    i.low_level_output  ethernetif.o
    0x08003900   0x00000016   Code   RO         1416    i.lwip_init         init.o
    0x08003916   0x0000003a   Code   RO         2344    i.lwip_standard_chksum  inet_chksum.o
    0x08003950   0x00000040   Code   RO          147    i.main              main.o
    0x08003990   0x00000040   Code   RO         1449    i.mem_free          mem.o
    0x080039d0   0x0000003c   Code   RO         1450    i.mem_init          mem.o
    0x08003a0c   0x000000c0   Code   RO         1451    i.mem_malloc        mem.o
    0x08003acc   0x000000dc   Code   RO         1452    i.mem_realloc       mem.o
    0x08003ba8   0x00000018   Code   RO         1492    i.memp_free         memp.o
    0x08003bc0   0x00000058   Code   RO         1493    i.memp_init         memp.o
    0x08003c18   0x00000020   Code   RO         1494    i.memp_malloc       memp.o
    0x08003c38   0x00000026   Code   RO         1024    i.netbuf_data       netbuf.o
    0x08003c5e   0x00000022   Code   RO         1025    i.netbuf_delete     netbuf.o
    0x08003c80   0x0000001e   Code   RO         1029    i.netbuf_next       netbuf.o
    0x08003c9e   0x00000028   Code   RO          717    i.netconn_accept    api_lib.o
    0x08003cc6   0x00000074   Code   RO          876    i.netconn_alloc     api_msg.o
    0x08003d3a   0x00000002   PAD
    0x08003d3c   0x0000002c   Code   RO          718    i.netconn_bind      api_lib.o
    0x08003d68   0x00000028   Code   RO          719    i.netconn_close     api_lib.o
    0x08003d90   0x0000002c   Code   RO          720    i.netconn_connect   api_lib.o
    0x08003dbc   0x00000028   Code   RO          721    i.netconn_delete    api_lib.o
    0x08003de4   0x00000068   Code   RO          877    i.netconn_free      api_msg.o
    0x08003e4c   0x00000028   Code   RO          724    i.netconn_listen_with_backlog  api_lib.o
    0x08003e74   0x00000048   Code   RO          725    i.netconn_new_with_proto_and_callback  api_lib.o
    0x08003ebc   0x000000d0   Code   RO          726    i.netconn_recv      api_lib.o
    0x08003f8c   0x00000028   Code   RO          727    i.netconn_send      api_lib.o
    0x08003fb4   0x0000003c   Code   RO          729    i.netconn_write     api_lib.o
    0x08003ff0   0x0000004c   Code   RO         1533    i.netif_add         netif.o
    0x0800403c   0x0000000a   Code   RO         1535    i.netif_is_up       netif.o
    0x08004046   0x00000020   Code   RO         1537    i.netif_set_addr    netif.o
    0x08004066   0x00000002   PAD
    0x08004068   0x0000000c   Code   RO         1538    i.netif_set_default  netif.o
    0x08004074   0x00000012   Code   RO         1539    i.netif_set_down    netif.o
    0x08004086   0x00000008   Code   RO         1540    i.netif_set_gw      netif.o
    0x0800408e   0x00000002   PAD
    0x08004090   0x00000068   Code   RO         1541    i.netif_set_ipaddr  netif.o
    0x080040f8   0x00000008   Code   RO         1542    i.netif_set_netmask  netif.o
    0x08004100   0x0000001c   Code   RO         1543    i.netif_set_up      netif.o
    0x0800411c   0x00000004   Code   RO         2297    i.ntohl             inet.o
    0x08004120   0x00000004   Code   RO         2298    i.ntohs             inet.o
    0x08004124   0x00000110   Code   RO         1612    i.pbuf_alloc        pbuf.o
    0x08004234   0x00000028   Code   RO         1613    i.pbuf_cat          pbuf.o
    0x0800425c   0x00000012   Code   RO         1614    i.pbuf_chain        pbuf.o
    0x0800426e   0x00000012   Code   RO         1615    i.pbuf_clen         pbuf.o
    0x08004280   0x00000090   Code   RO         1617    i.pbuf_copy         pbuf.o
    0x08004310   0x00000044   Code   RO         1620    i.pbuf_free         pbuf.o
    0x08004354   0x00000060   Code   RO         1621    i.pbuf_header       pbuf.o
    0x080043b4   0x00000050   Code   RO         1622    i.pbuf_realloc      pbuf.o
    0x08004404   0x0000000c   Code   RO         1623    i.pbuf_ref          pbuf.o
    0x08004410   0x00000090   Code   RO          878    i.pcb_new           api_msg.o
    0x080044a0   0x00000054   Code   RO         1453    i.plug_holes        mem.o
    0x080044f4   0x0000001c   Code   RO          879    i.poll_tcp          api_msg.o
    0x08004510   0x00000060   Code   RO         5433    i.prvCheckTasksWaitingTermination  tasks.o
    0x08004570   0x0000002a   Code   RO         5673    i.prvCopyDataFromQueue  queue.o
    0x0800459a   0x0000005a   Code   RO         5674    i.prvCopyDataToQueue  queue.o
    0x080045f4   0x00000018   Code   RO         5434    i.prvIdleTask       tasks.o
    0x0800460c   0x00000064   Code   RO         5675    i.prvUnlockQueue    queue.o
    0x08004670   0x000000b0   Code   RO         5394    i.pvPortMalloc      heap_2.o
    0x08004720   0x0000001c   Code   RO         5341    i.pxPortInitialiseStack  port.o
    0x0800473c   0x0000000a   Code   RO         1699    i.raw_bind          raw.o
    0x08004746   0x0000000a   Code   RO         1700    i.raw_connect       raw.o
    0x08004750   0x0000006c   Code   RO         1701    i.raw_input         raw.o
    0x080047bc   0x0000002c   Code   RO         1702    i.raw_new           raw.o
    0x080047e8   0x00000006   Code   RO         1703    i.raw_recv          raw.o
    0x080047ee   0x00000002   PAD
    0x080047f0   0x0000002c   Code   RO         1704    i.raw_remove        raw.o
    0x0800481c   0x00000006   Code   RO         1705    i.raw_send          raw.o
    0x08004822   0x0000008a   Code   RO         1706    i.raw_sendto        raw.o
    0x080048ac   0x00000072   Code   RO          880    i.recv_raw          api_msg.o
    0x0800491e   0x00000040   Code   RO          881    i.recv_tcp          api_msg.o
    0x0800495e   0x00000068   Code   RO          882    i.recv_udp          api_msg.o
    0x080049c6   0x00000042   Code   RO          883    i.sent_tcp          api_msg.o
    0x08004a08   0x00000044   Code   RO          884    i.setup_tcp         api_msg.o
    0x08004a4c   0x0000004c   Code   RO         2590    i.sys_arch_mbox_fetch  sys_arch.o
    0x08004a98   0x0000001c   Code   RO         2591    i.sys_arch_mbox_tryfetch  sys_arch.o
    0x08004ab4   0x00000042   Code   RO         2593    i.sys_arch_sem_wait  sys_arch.o
    0x08004af6   0x00000002   PAD
    0x08004af8   0x00000030   Code   RO         2594    i.sys_arch_timeouts  sys_arch.o
    0x08004b28   0x00000028   Code   RO         2597    i.sys_init          sys_arch.o
    0x08004b50   0x00000060   Code   RO         1762    i.sys_mbox_fetch    sys.o
    0x08004bb0   0x00000012   Code   RO         2598    i.sys_mbox_free     sys_arch.o
    0x08004bc2   0x00000008   Code   RO         2599    i.sys_mbox_new      sys_arch.o
    0x08004bca   0x0000001a   Code   RO         2600    i.sys_mbox_post     sys_arch.o
    0x08004be4   0x0000001a   Code   RO         2601    i.sys_mbox_trypost  sys_arch.o
    0x08004bfe   0x00000004   Code   RO         2602    i.sys_sem_free      sys_arch.o
    0x08004c02   0x00000032   Code   RO         2603    i.sys_sem_new       sys_arch.o
    0x08004c34   0x0000000a   Code   RO         2604    i.sys_sem_signal    sys_arch.o
    0x08004c3e   0x00000002   PAD
    0x08004c40   0x00000050   Code   RO         2605    i.sys_thread_new    sys_arch.o
    0x08004c90   0x00000062   Code   RO         1766    i.sys_timeout       sys.o
    0x08004cf2   0x0000004e   Code   RO         1767    i.sys_untimeout     sys.o
    0x08004d40   0x00000094   Code   RO         1817    i.tcp_abandon       tcp.o
    0x08004dd4   0x00000004   Code   RO         1818    i.tcp_accept        tcp.o
    0x08004dd8   0x00000006   Code   RO         1819    i.tcp_accept_null   tcp.o
    0x08004dde   0x00000002   PAD
    0x08004de0   0x000000f4   Code   RO         1820    i.tcp_alloc         tcp.o
    0x08004ed4   0x00000004   Code   RO         1821    i.tcp_arg           tcp.o
    0x08004ed8   0x000000c0   Code   RO         1822    i.tcp_bind          tcp.o
    0x08004f98   0x000000a0   Code   RO         1823    i.tcp_close         tcp.o
    0x08005038   0x000000c0   Code   RO         1824    i.tcp_connect       tcp.o
    0x080050f8   0x00000020   Code   RO         1826    i.tcp_eff_send_mss  tcp.o
    0x08005118   0x00000342   Code   RO         2048    i.tcp_enqueue       tcp_out.o
    0x0800545a   0x00000006   Code   RO         1827    i.tcp_err           tcp.o
    0x08005460   0x0000005c   Code   RO         1828    i.tcp_fasttmr       tcp.o
    0x080054bc   0x000002f8   Code   RO         2000    i.tcp_input         tcp_in.o
    0x080057b4   0x00000046   Code   RO         2049    i.tcp_keepalive     tcp_out.o
    0x080057fa   0x00000002   PAD
    0x080057fc   0x000000ec   Code   RO         2001    i.tcp_listen_input  tcp_in.o
    0x080058e8   0x00000084   Code   RO         1829    i.tcp_listen_with_backlog  tcp.o
    0x0800596c   0x00000006   Code   RO         1830    i.tcp_new           tcp.o
    0x08005972   0x00000002   PAD
    0x08005974   0x00000060   Code   RO         1831    i.tcp_new_port      tcp.o
    0x080059d4   0x00000010   Code   RO         1832    i.tcp_next_iss      tcp.o
    0x080059e4   0x000001b4   Code   RO         2050    i.tcp_output        tcp_out.o
    0x08005b98   0x000000b4   Code   RO         2051    i.tcp_output_segment  tcp_out.o
    0x08005c4c   0x0000007c   Code   RO         2052    i.tcp_output_set_header  tcp_out.o
    0x08005cc8   0x0000007c   Code   RO         2002    i.tcp_parseopt      tcp_in.o
    0x08005d44   0x00000030   Code   RO         1833    i.tcp_pcb_purge     tcp.o
    0x08005d74   0x0000005c   Code   RO         1834    i.tcp_pcb_remove    tcp.o
    0x08005dd0   0x0000000a   Code   RO         1835    i.tcp_poll          tcp.o
    0x08005dda   0x00000002   PAD
    0x08005ddc   0x00000354   Code   RO         2003    i.tcp_process       tcp_in.o
    0x08006130   0x0000043c   Code   RO         2004    i.tcp_receive       tcp_in.o
    0x0800656c   0x00000006   Code   RO         1836    i.tcp_recv          tcp.o
    0x08006572   0x00000024   Code   RO         1837    i.tcp_recv_null     tcp.o
    0x08006596   0x0000003c   Code   RO         1838    i.tcp_recved        tcp.o
    0x080065d2   0x0000004e   Code   RO         2053    i.tcp_rexmit        tcp_out.o
    0x08006620   0x00000056   Code   RO         2054    i.tcp_rexmit_fast   tcp_out.o
    0x08006676   0x0000002e   Code   RO         2055    i.tcp_rexmit_rto    tcp_out.o
    0x080066a4   0x0000009c   Code   RO         2056    i.tcp_rst           tcp_out.o
    0x08006740   0x00000020   Code   RO         1839    i.tcp_seg_free      tcp.o
    0x08006760   0x0000001a   Code   RO         1840    i.tcp_segs_free     tcp.o
    0x0800677a   0x00000016   Code   RO         2057    i.tcp_send_ctrl     tcp_out.o
    0x08006790   0x00000056   Code   RO         2058    i.tcp_send_empty_ack  tcp_out.o
    0x080067e6   0x00000006   Code   RO         1841    i.tcp_sent          tcp.o
    0x080067ec   0x0000022c   Code   RO         1843    i.tcp_slowtmr       tcp.o
    0x08006a18   0x00000034   Code   RO         1110    i.tcp_timer_needed  tcpip.o
    0x08006a4c   0x0000006c   Code   RO         2005    i.tcp_timewait_input  tcp_in.o
    0x08006ab8   0x00000020   Code   RO         1844    i.tcp_tmr           tcp.o
    0x08006ad8   0x00000036   Code   RO         1845    i.tcp_update_rcv_ann_wnd  tcp.o
    0x08006b0e   0x0000002e   Code   RO         2059    i.tcp_write         tcp_out.o
    0x08006b3c   0x00000090   Code   RO         2060    i.tcp_zero_window_probe  tcp_out.o
    0x08006bcc   0x0000002c   Code   RO          700    i.tcpecho_init      tcpecho.o
    0x08006bf8   0x000000b4   Code   RO          701    i.tcpecho_thread    tcpecho.o
    0x08006cac   0x00000034   Code   RO         1111    i.tcpip_apimsg      tcpip.o
    0x08006ce0   0x0000003c   Code   RO         1113    i.tcpip_init        tcpip.o
    0x08006d1c   0x00000048   Code   RO         1114    i.tcpip_input       tcpip.o
    0x08006d64   0x00000038   Code   RO         1115    i.tcpip_tcp_timer   tcpip.o
    0x08006d9c   0x000000b4   Code   RO         1116    i.tcpip_thread      tcpip.o
    0x08006e50   0x0000005c   Code   RO         2130    i.udp_bind          udp.o
    0x08006eac   0x0000004c   Code   RO         2131    i.udp_connect       udp.o
    0x08006ef8   0x00000164   Code   RO         2133    i.udp_input         udp.o
    0x0800705c   0x0000001a   Code   RO         2134    i.udp_new           udp.o
    0x08007076   0x00000006   Code   RO         2135    i.udp_recv          udp.o
    0x0800707c   0x0000002c   Code   RO         2136    i.udp_remove        udp.o
    0x080070a8   0x00000008   Code   RO         2137    i.udp_send          udp.o
    0x080070b0   0x00000028   Code   RO         2138    i.udp_sendto        udp.o
    0x080070d8   0x000000b0   Code   RO         2139    i.udp_sendto_if     udp.o
    0x08007188   0x0000002c   Code   RO          607    i.udpecho_init      udpecho.o
    0x080071b4   0x00000094   Code   RO          608    i.udpecho_thread    udpecho.o
    0x08007248   0x00000070   Code   RO         2450    i.update_arp_entry  etharp.o
    0x080072b8   0x00000012   Code   RO         5676    i.uxQueueMessagesWaiting  queue.o
    0x080072ca   0x00000016   Code   RO         5637    i.vListInitialise   list.o
    0x080072e0   0x00000006   Code   RO         5638    i.vListInitialiseItem  list.o
    0x080072e6   0x00000030   Code   RO         5639    i.vListInsert       list.o
    0x08007316   0x0000001c   Code   RO         5640    i.vListInsertEnd    list.o
    0x08007332   0x00000024   Code   RO         5641    i.vListRemove       list.o
    0x08007356   0x00000002   PAD
    0x08007358   0x00000014   Code   RO         5343    i.vPortEnterCritical  port.o
    0x0800736c   0x00000014   Code   RO         5344    i.vPortExitCritical  port.o
    0x08007380   0x0000003c   Code   RO         5395    i.vPortFree         heap_2.o
    0x080073bc   0x00000010   Code   RO         5345    i.vPortYieldFromISR  port.o
    0x080073cc   0x00000014   Code   RO         5678    i.vQueueDelete      queue.o
    0x080073e0   0x00000048   Code   RO         5437    i.vTaskDelay        tasks.o
    0x08007428   0x0000007c   Code   RO         5440    i.vTaskIncrementTick  tasks.o
    0x080074a4   0x0000000c   Code   RO         5441    i.vTaskMissedYield  tasks.o
    0x080074b0   0x0000003c   Code   RO         5442    i.vTaskPlaceOnEventList  tasks.o
    0x080074ec   0x00000048   Code   RO         5443    i.vTaskPriorityDisinherit  tasks.o
    0x08007534   0x00000064   Code   RO         5444    i.vTaskPriorityInherit  tasks.o
    0x08007598   0x00000010   Code   RO         5446    i.vTaskSetTimeOutState  tasks.o
    0x080075a8   0x00000044   Code   RO         5447    i.vTaskStartScheduler  tasks.o
    0x080075ec   0x00000010   Code   RO         5448    i.vTaskSuspendAll   tasks.o
    0x080075fc   0x0000004c   Code   RO         5449    i.vTaskSwitchContext  tasks.o
    0x08007648   0x0000003c   Code   RO         5346    i.xPortStartScheduler  port.o
    0x08007684   0x00000020   Code   RO         5347    i.xPortSysTickHandler  port.o
    0x080076a4   0x0000005e   Code   RO         5679    i.xQueueCreate      queue.o
    0x08007702   0x00000012   Code   RO         5680    i.xQueueCreateCountingSemaphore  queue.o
    0x08007714   0x00000108   Code   RO         5682    i.xQueueGenericReceive  queue.o
    0x0800781c   0x000000d2   Code   RO         5683    i.xQueueGenericSend  queue.o
    0x080078ee   0x00000054   Code   RO         5684    i.xQueueGenericSendFromISR  queue.o
    0x08007942   0x00000002   PAD
    0x08007944   0x00000048   Code   RO         5450    i.xTaskCheckForTimeOut  tasks.o
    0x0800798c   0x00000160   Code   RO         5451    i.xTaskGenericCreate  tasks.o
    0x08007aec   0x0000000c   Code   RO         5452    i.xTaskGetCurrentTaskHandle  tasks.o
    0x08007af8   0x00000018   Code   RO         5453    i.xTaskGetTickCount  tasks.o
    0x08007b10   0x00000060   Code   RO         5455    i.xTaskRemoveFromEventList  tasks.o
    0x08007b70   0x000000b0   Code   RO         5456    i.xTaskResumeAll    tasks.o
    0x08007c20   0x00000030   Data   RO         1496    .constdata          memp.o
    0x08007c50   0x00000014   Data   RO         1846    .constdata          tcp.o
    0x08007c64   0x00000004   Data   RO         2411    .constdata          ip_addr.o
    0x08007c68   0x00000004   Data   RO         2412    .constdata          ip_addr.o
    0x08007c6c   0x0000000c   Data   RO         2452    .constdata          etharp.o
    0x08007c78   0x000011d0   Data   RO         5041    .constdata          stm324xg_eval_lcd.o
    0x08008e48   0x0000005c   Data   RO         5257    .constdata          stm324xg_eval.o
    0x08008ea4   0x00000068   Data   RO         1847    .conststring        tcp.o
    0x08008f0c   0x00000020   Data   RO         6086    Region$$Table       anon$$obj.o


    Execution Region RW_IRAM1 (Base: 0x20000000, Size: 0x0000cf88, Max: 0x00020000, ABSOLUTE, COMPRESSED[0x00000060])

    Base Addr    Size         Type   Attr      Idx    E Section Name        Object

    0x20000000   0x00000004   Data   RW          148    .data               main.o
    0x20000004   0x00000008   Data   RW          477    .data               stm32f4x7_eth_bsp.o
    0x2000000c   0x00000010   Data   RW          609    .data               udpecho.o
    0x2000001c   0x00000010   Data   RW         1119    .data               tcpip.o
    0x2000002c   0x00000004   Data   RW         1267    .data               dhcp.o
    0x20000030   0x00000010   Data   RW         1455    .data               mem.o
    0x20000040   0x0000000c   Data   RW         1544    .data               netif.o
    0x2000004c   0x00000004   Data   RW         1707    .data               raw.o
    0x20000050   0x0000004c   Data   RW         1848    .data               tcp.o
    0x2000009c   0x0000001c   Data   RW         2007    .data               tcp_in.o
    0x200000b8   0x00000004   Data   RW         2140    .data               udp.o
    0x200000bc   0x0000000c   Data   RW         2374    .data               ip.o
    0x200000c8   0x00000001   Data   RW         2453    .data               etharp.o
    0x200000c9   0x00000003   PAD
    0x200000cc   0x0000000c   Data   RW         2544    .data               ethernetif.o
    0x200000d8   0x00000002   Data   RW         2607    .data               sys_arch.o
    0x200000da   0x00000010   Data   RW         3802    .data               stm32f4xx_rcc.o
    0x200000ea   0x00000002   PAD
    0x200000ec   0x0000000c   Data   RW         4567    .data               stm32f4x7_eth.o
    0x200000f8   0x00000014   Data   RW         5045    .data               stm324xg_eval_lcd.o
    0x2000010c   0x0000002c   Data   RW         5258    .data               stm324xg_eval.o
    0x20000138   0x00000004   Data   RW         5348    .data               port.o
    0x2000013c   0x00000018   Data   RW         5399    .data               heap_2.o
    0x20000154   0x00000038   Data   RW         5458    .data               tasks.o
    0x2000018c   0x00000004   Data   RW         6060    .data               mc_w.l(stdout.o)
    0x20000190   0x00000038   Zero   RW          407    .bss                netconf.o
    0x200001c8   0x00001414   Zero   RW         1454    .bss                mem.o
    0x200015dc   0x00003b13   Zero   RW         1495    .bss                memp.o
    0x200050ef   0x00000001   PAD
    0x200050f0   0x00000014   Zero   RW         2006    .bss                tcp_in.o
    0x20005104   0x000000a0   Zero   RW         2451    .bss                etharp.o
    0x200051a4   0x00000030   Zero   RW         2606    .bss                sys_arch.o
    0x200051d4   0x000000a0   Zero   RW         4562    .bss                stm32f4x7_eth.o
    0x20005274   0x000000a0   Zero   RW         4563    .bss                stm32f4x7_eth.o
    0x20005314   0x00001dc4   Zero   RW         4564    .bss                stm32f4x7_eth.o
    0x200070d8   0x00001dc4   Zero   RW         4565    .bss                stm32f4x7_eth.o
    0x20008e9c   0x0000000c   Zero   RW         4566    .bss                stm32f4x7_eth.o
    0x20008ea8   0x00003c00   Zero   RW         5398    .bss                heap_2.o
    0x2000caa8   0x000000dc   Zero   RW         5457    .bss                tasks.o
    0x2000cb84   0x00000004   PAD
    0x2000cb88   0x00000400   Zero   RW          137    STACK               startup_stm32f4xx.o


==============================================================================

Image component sizes


      Code (inc. data)   RO Data    RW Data    ZI Data      Debug   Object Name

       628         44          0          0          0      31012   api_lib.o
      2104         48          0          0          0      17610   api_msg.o
       704         42          0          0          0       6069   autoip.o
      2274         60          0          4          0      16147   dhcp.o
      1338         44         12          1        160      12273   etharp.o
       584         78          0         12          0       6238   ethernetif.o
       236         12          0         24      15360       5115   heap_2.o
       378          0          0          0          0       2765   icmp.o
        16          0          0          0          0       3188   inet.o
       142          0          0          0          0       2969   inet_chksum.o
        22          0          0          0          0       1887   init.o
       680         24          0         12          0       8859   ip.o
        48          0          8          0          0       5885   ip_addr.o
       140          0          0          0          0       3541   list.o
       308        116          0          4          0     298446   main.o
       620         28          0         16       5140       5397   mem.o
       144         20         48          0      15123       3562   memp.o
       120         18          0          0          0       1735   misc.o
       102          0          0          0          0       2564   netbuf.o
       188         56          0          0         56       8015   netconf.o
       296         18          0         12          0       8290   netif.o
       748          0          0          0          0       7925   pbuf.o
       312         46          0          4          0       6073   port.o
       940          0          0          0          0      10261   queue.o
       366         16          0          4          0       6603   raw.o
        36          8        392          0       1024        776   startup_stm32f4xx.o
       100         18         92         44          0       3308   stm324xg_eval.o
      1442         70       4560         20          0      12686   stm324xg_eval_lcd.o
      1674        174          0         12      15572      53946   stm32f4x7_eth.o
       858        148          0          8          0       4333   stm32f4x7_eth_bsp.o
       156         14          0          0          0       2476   stm32f4xx_exti.o
       224          4          0          0          0       2125   stm32f4xx_fsmc.o
       156          0          0          0          0       1999   stm32f4xx_gpio.o
       110          4          0          0          0       4059   stm32f4xx_it.o
       264         42          0         16          0       6145   stm32f4xx_rcc.o
        52         12          0          0          0       1354   stm32f4xx_syscfg.o
       272          0          0          0          0       3307   sys.o
       480         26          0          2         48      10583   sys_arch.o
       236         34          0          0          0     244993   system_stm32f4xx.o
      1468        134          0         56        220      16327   tasks.o
      2288         94        124         76          0      28644   tcp.o
      3164         86          0         28         20      15412   tcp_in.o
      2308         14          0          0          0      13058   tcp_out.o
       224         78          0          0          0       1615   tcpecho.o
       580        106          0         16          0      21050   tcpip.o
       824         20          0          4          0      17268   udp.o
       192         82          0         16          0      22119   udpecho.o

    ----------------------------------------------------------------------
     30600       1838       5268        396      52728     970012   Object Totals
         0          0         32          0          0          0   (incl. Generated)
        54          0          0          5          5          0   (incl. Padding)

    ----------------------------------------------------------------------

      Code (inc. data)   RO Data    RW Data    ZI Data      Debug   Library Member Name

        92          0          0          0          0          0   __dczerorl2.o
         0          0          0          0          0          0   entry.o
         8          4          0          0          0          0   entry2.o
         4          0          0          0          0          0   entry5.o
         0          0          0          0          0          0   entry7b.o
         8          4          0          0          0          0   entry8.o
        18          0          0          0          0         80   fputc.o
        30          0          0          0          0          0   handlers.o
        36          8          0          0          0         68   init.o
         0          0          0          0          0          0   iusesemip.o
        26          0          0          0          0         80   memcmp.o
        36          0          0          0          0         68   memcpya.o
        38          0          0          0          0        108   memseta.o
       418         20          0          0          0        332   printf1.o
         0          0          0          0          0          0   semi.o
         0          0          0          4          0          0   stdout.o
        24          0          0          0          0         76   strncpy.o
        44          0          0          0          0         80   uidiv.o

    ----------------------------------------------------------------------
       784         36          0          4          0        892   Library Totals
         2          0          0          0          0          0   (incl. Padding)

    ----------------------------------------------------------------------

      Code (inc. data)   RO Data    RW Data    ZI Data      Debug   Library Name

       782         36          0          4          0        892   mc_w.l

    ----------------------------------------------------------------------
       784         36          0          4          0        892   Library Totals

    ----------------------------------------------------------------------

==============================================================================


      Code (inc. data)   RO Data    RW Data    ZI Data      Debug   

     31384       1874       5268        400      52728     953380   Grand Totals
     31384       1874       5268         96      52728     953380   ELF Image Totals (compressed)
     31384       1874       5268         96          0          0   ROM Totals

==============================================================================

    Total RO  Size (Code + RO Data)                36652 (  35.79kB)
    Total RW  Size (RW Data + ZI Data)             53128 (  51.88kB)
    Total ROM Size (Code + RO Data + RW Data)      36748 (  35.89kB)

==============================================================================

